ccopy_reg
_reconstructor
p0
(cmvk.impl.python.python_representer
RootPackage
p1
c__builtin__
object
p2
Ntp3
Rp4
(dp5
S'my_type'
p6
g0
(cmvk.impl.python.datatype
PackageType
p7
g2
Ntp8
Rp9
sS'name_lookup'
p10
g0
(cmvk.impl.python.datavalue
MappingValue
p11
g2
Ntp12
Rp13
(dp14
S'value'
p15
(dp16
g0
(cmvk.impl.python.datavalue
LocationValue
p17
g2
Ntp18
Rp19
(dp20
g15
S'protected'
p21
sbg0
(cmvk.impl.python.object
Package
p22
g2
Ntp23
Rp24
(dp25
g6
g0
(g7
g2
Ntp26
Rp27
sg10
g0
(g11
g2
Ntp28
Rp29
(dp30
g15
(dp31
g0
(g17
g2
Ntp32
Rp33
(dp34
g15
S'formalisms'
p35
sbg0
(g22
g2
Ntp36
Rp37
(dp38
g6
g0
(g7
g2
Ntp39
Rp40
sg10
g0
(g11
g2
Ntp41
Rp42
(dp43
g15
(dp44
g0
(cmvk.impl.python.datavalue
StringValue
p45
g2
Ntp46
Rp47
(dp48
g15
S'SimpleClassDiagrams'
p49
sbg0
(cmvk.impl.python.object
Model
p50
g2
Ntp51
Rp52
(dp53
S'potency'
p54
g0
(cmvk.impl.python.datavalue
IntegerValue
p55
g2
Ntp56
Rp57
(dp58
g15
I2
sbsS'name'
p59
g47
sS'parent'
p60
g37
sS'in_associations'
p61
g0
(g11
g2
Ntp62
Rp63
(dp64
g15
(dp65
sbsg10
g0
(g11
g2
Ntp66
Rp67
(dp68
g15
(dp69
g0
(g45
g2
Ntp70
Rp71
(dp72
g15
S'Inheritance'
p73
sbg0
(cmvk.impl.python.object
Association
p74
g2
Ntp75
Rp76
(dp77
S'upper'
p78
g0
(cmvk.impl.python.datavalue
InfiniteValue
p79
g2
Ntp80
Rp81
(dp82
g15
Finf
sbsS'lower'
p83
g0
(g55
g2
Ntp84
Rp85
(dp86
g15
I0
sbsg54
g0
(g55
g2
Ntp87
Rp88
(dp89
g15
I1
sbsS'ordered'
p90
g0
(cmvk.impl.python.datavalue
BooleanValue
p91
g2
Ntp92
Rp93
(dp94
g15
I00
sbsg59
g71
sg60
g52
sS'abstract'
p95
g0
(g91
g2
Ntp96
Rp97
(dp98
g15
I00
sbsS'from_multiplicity'
p99
g0
(cmvk.impl.python.object
AssociationEnd
p100
g2
Ntp101
Rp102
(dp103
S'node'
p104
g0
(cmvk.impl.python.object
Clabject
p105
g2
Ntp106
Rp107
(dp108
g78
g0
(g79
g2
Ntp109
Rp110
(dp111
g15
Finf
sbsg83
g0
(g55
g2
Ntp112
Rp113
(dp114
g15
I0
sbsg54
g0
(g55
g2
Ntp115
Rp116
(dp117
g15
I2
sbsg90
g0
(g91
g2
Ntp118
Rp119
(dp120
g15
I00
sbsg59
g0
(g45
g2
Ntp121
Rp122
(dp123
g15
S'Class'
p124
sbsg60
g52
sg95
g0
(g91
g2
Ntp125
Rp126
(dp127
g15
I00
sbsg61
g0
(g11
g2
Ntp128
Rp129
(dp130
g15
(dp131
g0
(g17
g2
Ntp132
Rp133
(dp134
g15
S'protected.formalisms.SimpleClassDiagrams.Association'
p135
sbg0
(g74
g2
Ntp136
Rp137
(dp138
g78
g0
(g79
g2
Ntp139
Rp140
(dp141
g15
Finf
sbsg83
g0
(g55
g2
Ntp142
Rp143
(dp144
g15
I0
sbsg54
g0
(g55
g2
Ntp145
Rp146
(dp147
g15
I2
sbsg90
g0
(g91
g2
Ntp148
Rp149
(dp150
g15
I00
sbsg59
g0
(g45
g2
Ntp151
Rp152
(dp153
g15
S'Association'
p154
sbsg60
g52
sg95
g0
(g91
g2
Ntp155
Rp156
(dp157
g15
I00
sbsg99
g0
(g100
g2
Ntp158
Rp159
(dp160
g104
g107
sg78
g0
(g79
g2
Ntp161
Rp162
(dp163
g15
Finf
sbsg83
g0
(g55
g2
Ntp164
Rp165
(dp166
g15
I0
sbsS'port_name'
p167
g0
(g45
g2
Ntp168
Rp169
(dp170
g15
S'from_class'
p171
sbsg90
g0
(g91
g2
Ntp172
Rp173
(dp174
g15
I00
sbsbsg61
g0
(g11
g2
Ntp175
Rp176
(dp177
g15
(dp178
sbsS'l_type'
p179
g0
(cmvk.impl.python.object
AssociationReference
p180
g2
Ntp181
Rp182
(dp183
S'path'
p184
g0
(g17
g2
Ntp185
Rp186
(dp187
g15
S'mvk.object.Association'
p188
sbsbsS'superclasses'
p189
g0
(g11
g2
Ntp190
Rp191
(dp192
g15
(dp193
g0
(g17
g2
Ntp194
Rp195
(dp196
g15
S'protected.formalisms.SimpleClassDiagrams.Class'
p197
sbg0
(cmvk.impl.python.object
ClabjectReference
p198
g2
Ntp199
Rp200
(dp201
g184
g195
sbssbsS'to_multiplicity'
p202
g0
(g100
g2
Ntp203
Rp204
(dp205
g104
g107
sg78
g0
(g79
g2
Ntp206
Rp207
(dp208
g15
Finf
sbsg83
g0
(g55
g2
Ntp209
Rp210
(dp211
g15
I0
sbsg167
g0
(g45
g2
Ntp212
Rp213
(dp214
g15
S'to_class'
p215
sbsg90
g0
(g91
g2
Ntp216
Rp217
(dp218
g15
I00
sbsbsS'attributes'
p219
g0
(g11
g2
Ntp220
Rp221
(dp222
g15
(dp223
g0
(g45
g2
Ntp224
Rp225
(dp226
g15
S'from_max'
p227
sbg0
(cmvk.impl.python.object
Attribute
p228
g2
Ntp229
Rp230
(dp231
g78
g0
(g55
g2
Ntp232
Rp233
(dp234
g15
I1
sbsg83
g0
(g55
g2
Ntp235
Rp236
(dp237
g15
I1
sbsg54
g0
(g55
g2
Ntp238
Rp239
(dp240
g15
I1
sbsg90
g0
(g91
g2
Ntp241
Rp242
(dp243
g15
I00
sbsg59
g225
sg60
g137
sS'default'
p244
g0
(g79
g2
Ntp245
Rp246
(dp247
g15
Finf
sbsg61
g0
(g11
g2
Ntp248
Rp249
(dp250
g15
(dp251
sbsg179
g0
(g198
g2
Ntp252
Rp253
(dp254
g184
g0
(g17
g2
Ntp255
Rp256
(dp257
g15
S'mvk.object.Attribute'
p258
sbsbsg219
g0
(g11
g2
Ntp259
Rp260
(dp261
g15
(dp262
sbsS'type'
p263
g0
(cmvk.impl.python.datatype
UnionType
p264
g2
Ntp265
Rp266
(dp267
S'types'
p268
g0
(cmvk.impl.python.datavalue
SequenceValue
p269
g2
Ntp270
Rp271
(dp272
g15
(lp273
g0
(cmvk.impl.python.datatype
IntegerType
p274
g2
Ntp275
Rp276
ag0
(cmvk.impl.python.datatype
InfiniteType
p277
g2
Ntp278
Rp279
asbsbsS'out_associations'
p280
g0
(g11
g2
Ntp281
Rp282
(dp283
g15
(dp284
sbsbsg0
(g45
g2
Ntp285
Rp286
(dp287
g15
S'to_port'
p288
sbg0
(g228
g2
Ntp289
Rp290
(dp291
g78
g0
(g55
g2
Ntp292
Rp293
(dp294
g15
I1
sbsg83
g0
(g55
g2
Ntp295
Rp296
(dp297
g15
I1
sbsg54
g0
(g55
g2
Ntp298
Rp299
(dp300
g15
I1
sbsg90
g0
(g91
g2
Ntp301
Rp302
(dp303
g15
I00
sbsg59
g286
sg60
g137
sg244
g0
(g45
g2
Ntp304
Rp305
(dp306
g15
S''
p307
sbsg61
g0
(g11
g2
Ntp308
Rp309
(dp310
g15
(dp311
sbsg179
g0
(g198
g2
Ntp312
Rp313
(dp314
g184
g0
(g17
g2
Ntp315
Rp316
(dp317
g15
g258
sbsbsg219
g0
(g11
g2
Ntp318
Rp319
(dp320
g15
(dp321
sbsg263
g0
(cmvk.impl.python.datatype
StringType
p322
g2
Ntp323
Rp324
sg280
g0
(g11
g2
Ntp325
Rp326
(dp327
g15
(dp328
sbsbsg0
(g45
g2
Ntp329
Rp330
(dp331
g15
S'to_max'
p332
sbg0
(g228
g2
Ntp333
Rp334
(dp335
g78
g0
(g55
g2
Ntp336
Rp337
(dp338
g15
I1
sbsg83
g0
(g55
g2
Ntp339
Rp340
(dp341
g15
I1
sbsg54
g0
(g55
g2
Ntp342
Rp343
(dp344
g15
I1
sbsg90
g0
(g91
g2
Ntp345
Rp346
(dp347
g15
I00
sbsg59
g330
sg60
g137
sg244
g0
(g79
g2
Ntp348
Rp349
(dp350
g15
Finf
sbsg61
g0
(g11
g2
Ntp351
Rp352
(dp353
g15
(dp354
sbsg179
g0
(g198
g2
Ntp355
Rp356
(dp357
g184
g0
(g17
g2
Ntp358
Rp359
(dp360
g15
g258
sbsbsg219
g0
(g11
g2
Ntp361
Rp362
(dp363
g15
(dp364
sbsg263
g266
sg280
g0
(g11
g2
Ntp365
Rp366
(dp367
g15
(dp368
sbsbsg0
(g45
g2
Ntp369
Rp370
(dp371
g15
S'from_min'
p372
sbg0
(g228
g2
Ntp373
Rp374
(dp375
g78
g0
(g55
g2
Ntp376
Rp377
(dp378
g15
I1
sbsg83
g0
(g55
g2
Ntp379
Rp380
(dp381
g15
I1
sbsg54
g0
(g55
g2
Ntp382
Rp383
(dp384
g15
I1
sbsg90
g0
(g91
g2
Ntp385
Rp386
(dp387
g15
I00
sbsg59
g370
sg60
g137
sg244
g0
(g55
g2
Ntp388
Rp389
(dp390
g15
I0
sbsg61
g0
(g11
g2
Ntp391
Rp392
(dp393
g15
(dp394
sbsg179
g0
(g198
g2
Ntp395
Rp396
(dp397
g184
g0
(g17
g2
Ntp398
Rp399
(dp400
g15
g258
sbsbsg219
g0
(g11
g2
Ntp401
Rp402
(dp403
g15
(dp404
sbsg263
g0
(g274
g2
Ntp405
Rp406
sg280
g0
(g11
g2
Ntp407
Rp408
(dp409
g15
(dp410
sbsbsg0
(g45
g2
Ntp411
Rp412
(dp413
g15
S'from_port'
p414
sbg0
(g228
g2
Ntp415
Rp416
(dp417
g78
g0
(g55
g2
Ntp418
Rp419
(dp420
g15
I1
sbsg83
g0
(g55
g2
Ntp421
Rp422
(dp423
g15
I1
sbsg54
g0
(g55
g2
Ntp424
Rp425
(dp426
g15
I1
sbsg90
g0
(g91
g2
Ntp427
Rp428
(dp429
g15
I00
sbsg59
g412
sg60
g137
sg244
g0
(g45
g2
Ntp430
Rp431
(dp432
g15
g307
sbsg61
g0
(g11
g2
Ntp433
Rp434
(dp435
g15
(dp436
sbsg179
g0
(g198
g2
Ntp437
Rp438
(dp439
g184
g0
(g17
g2
Ntp440
Rp441
(dp442
g15
g258
sbsbsg219
g0
(g11
g2
Ntp443
Rp444
(dp445
g15
(dp446
sbsg263
g0
(g322
g2
Ntp447
Rp448
sg280
g0
(g11
g2
Ntp449
Rp450
(dp451
g15
(dp452
sbsbsg0
(g45
g2
Ntp453
Rp454
(dp455
g15
S'to_min'
p456
sbg0
(g228
g2
Ntp457
Rp458
(dp459
g78
g0
(g55
g2
Ntp460
Rp461
(dp462
g15
I1
sbsg83
g0
(g55
g2
Ntp463
Rp464
(dp465
g15
I1
sbsg54
g0
(g55
g2
Ntp466
Rp467
(dp468
g15
I1
sbsg90
g0
(g91
g2
Ntp469
Rp470
(dp471
g15
I00
sbsg59
g454
sg60
g137
sg244
g0
(g55
g2
Ntp472
Rp473
(dp474
g15
I0
sbsg61
g0
(g11
g2
Ntp475
Rp476
(dp477
g15
(dp478
sbsg179
g0
(g198
g2
Ntp479
Rp480
(dp481
g184
g0
(g17
g2
Ntp482
Rp483
(dp484
g15
g188
sbsbsg219
g0
(g11
g2
Ntp485
Rp486
(dp487
g15
(dp488
sbsg263
g0
(g274
g2
Ntp489
Rp490
sg280
g0
(g11
g2
Ntp491
Rp492
(dp493
g15
(dp494
sbsbssbsS'specialiseclasses'
p495
g0
(g11
g2
Ntp496
Rp497
(dp498
g15
(dp499
sbsg280
g0
(g11
g2
Ntp500
Rp501
(dp502
g15
(dp503
g0
(g17
g2
Ntp504
Rp505
(dp506
g15
S'protected.formalisms.SimpleClassDiagrams.a_i_c'
p507
sbg0
(cmvk.impl.python.object
Inherits
p508
g2
Ntp509
Rp510
(dp511
g78
g0
(g79
g2
Ntp512
Rp513
(dp514
g15
Finf
sbsg83
g0
(g55
g2
Ntp515
Rp516
(dp517
g15
I0
sbsg54
g0
(g55
g2
Ntp518
Rp519
(dp520
g15
I0
sbsg90
g0
(g91
g2
Ntp521
Rp522
(dp523
g15
I00
sbsg59
g0
(g45
g2
Ntp524
Rp525
(dp526
g15
S'a_i_c'
p527
sbsg60
g52
sg99
g0
(g100
g2
Ntp528
Rp529
(dp530
g104
g137
sg78
g0
(g79
g2
Ntp531
Rp532
(dp533
g15
Finf
sbsg83
g0
(g55
g2
Ntp534
Rp535
(dp536
g15
I0
sbsg167
Nsg90
g0
(g91
g2
Ntp537
Rp538
(dp539
g15
I00
sbsbsg202
g0
(g100
g2
Ntp540
Rp541
(dp542
g104
g107
sg78
g0
(g79
g2
Ntp543
Rp544
(dp545
g15
Finf
sbsg83
g0
(g55
g2
Ntp546
Rp547
(dp548
g15
I0
sbsg167
Nsg90
g0
(g91
g2
Ntp549
Rp550
(dp551
g15
I00
sbsbsg61
g0
(g11
g2
Ntp552
Rp553
(dp554
g15
(dp555
sbsg179
g0
(g180
g2
Ntp556
Rp557
(dp558
g184
g0
(g17
g2
Ntp559
Rp560
(dp561
g15
S'mvk.object.Inherits'
p562
sbsbsg189
g0
(g11
g2
Ntp563
Rp564
(dp565
g15
(dp566
sbsg495
g0
(g11
g2
Ntp567
Rp568
(dp569
g15
(dp570
sbsg219
g0
(g11
g2
Ntp571
Rp572
(dp573
g15
(dp574
sbsg280
g0
(g11
g2
Ntp575
Rp576
(dp577
g15
(dp578
sbsbssbsbsg0
(g17
g2
Ntp579
Rp580
(dp581
g15
S'protected.formalisms.SimpleClassDiagrams.a_i_c'
p582
sbg510
sg0
(g17
g2
Ntp583
Rp584
(dp585
g15
S'protected.formalisms.SimpleClassDiagrams.Inheritance'
p586
sbg76
ssbsg179
g0
(g198
g2
Ntp587
Rp588
(dp589
g184
g0
(g17
g2
Ntp590
Rp591
(dp592
g15
S'mvk.object.Clabject'
p593
sbsbsg189
g0
(g11
g2
Ntp594
Rp595
(dp596
g15
(dp597
sbsg495
g0
(g11
g2
Ntp598
Rp599
(dp600
g15
(dp601
g0
(g17
g2
Ntp602
Rp603
(dp604
g15
S'protected.formalisms.SimpleClassDiagrams.Association'
p605
sbg137
ssbsg219
g0
(g11
g2
Ntp606
Rp607
(dp608
g15
(dp609
g0
(g45
g2
Ntp610
Rp611
(dp612
g15
S'is_abstract'
p613
sbg0
(g228
g2
Ntp614
Rp615
(dp616
g78
g0
(g55
g2
Ntp617
Rp618
(dp619
g15
I1
sbsg83
g0
(g55
g2
Ntp620
Rp621
(dp622
g15
I1
sbsg54
g0
(g55
g2
Ntp623
Rp624
(dp625
g15
I1
sbsg90
g0
(g91
g2
Ntp626
Rp627
(dp628
g15
I00
sbsg59
g611
sg60
g107
sg244
g0
(g91
g2
Ntp629
Rp630
(dp631
g15
I00
sbsg61
g0
(g11
g2
Ntp632
Rp633
(dp634
g15
(dp635
sbsg179
g0
(g198
g2
Ntp636
Rp637
(dp638
g184
g0
(g17
g2
Ntp639
Rp640
(dp641
g15
g258
sbsbsg219
g0
(g11
g2
Ntp642
Rp643
(dp644
g15
(dp645
sbsg263
g0
(cmvk.impl.python.datatype
BooleanType
p646
g2
Ntp647
Rp648
sg280
g0
(g11
g2
Ntp649
Rp650
(dp651
g15
(dp652
sbsbsg0
(g45
g2
Ntp653
Rp654
(dp655
g15
S'name'
p656
sbg0
(g228
g2
Ntp657
Rp658
(dp659
g78
g0
(g55
g2
Ntp660
Rp661
(dp662
g15
I1
sbsg83
g0
(g55
g2
Ntp663
Rp664
(dp665
g15
I1
sbsg54
g0
(g55
g2
Ntp666
Rp667
(dp668
g15
I1
sbsg90
g0
(g91
g2
Ntp669
Rp670
(dp671
g15
I00
sbsg59
g654
sg60
g107
sg244
g0
(g45
g2
Ntp672
Rp673
(dp674
g15
g307
sbsg61
g0
(g11
g2
Ntp675
Rp676
(dp677
g15
(dp678
sbsg179
g0
(g198
g2
Ntp679
Rp680
(dp681
g184
g0
(g17
g2
Ntp682
Rp683
(dp684
g15
g258
sbsbsg219
g0
(g11
g2
Ntp685
Rp686
(dp687
g15
(dp688
sbsg263
g0
(g322
g2
Ntp689
Rp690
sg280
g0
(g11
g2
Ntp691
Rp692
(dp693
g15
(dp694
sbsbsg0
(g45
g2
Ntp695
Rp696
(dp697
g15
S'id_field'
p698
sbg0
(g228
g2
Ntp699
Rp700
(dp701
g78
g0
(g55
g2
Ntp702
Rp703
(dp704
g15
I1
sbsg83
g0
(g55
g2
Ntp705
Rp706
(dp707
g15
I0
sbsg54
g0
(g55
g2
Ntp708
Rp709
(dp710
g15
I1
sbsg90
g0
(g91
g2
Ntp711
Rp712
(dp713
g15
I00
sbsg59
g696
sg60
g107
sg244
g0
(g45
g2
Ntp714
Rp715
(dp716
g15
g307
sbsg61
g0
(g11
g2
Ntp717
Rp718
(dp719
g15
(dp720
sbsg179
g0
(g198
g2
Ntp721
Rp722
(dp723
g184
g0
(g17
g2
Ntp724
Rp725
(dp726
g15
g258
sbsbsg219
g0
(g11
g2
Ntp727
Rp728
(dp729
g15
(dp730
sbsg263
g0
(g322
g2
Ntp731
Rp732
sg280
g0
(g11
g2
Ntp733
Rp734
(dp735
g15
(dp736
sbsbssbsg280
g0
(g11
g2
Ntp737
Rp738
(dp739
g15
(dp740
g0
(g17
g2
Ntp741
Rp742
(dp743
g15
S'protected.formalisms.SimpleClassDiagrams.Association'
p744
sbg137
sg0
(g17
g2
Ntp745
Rp746
(dp747
g15
S'protected.formalisms.SimpleClassDiagrams.Inheritance'
p748
sbg76
sg0
(g17
g2
Ntp749
Rp750
(dp751
g15
S'protected.formalisms.SimpleClassDiagrams.attributes'
p752
sbg0
(cmvk.impl.python.object
Composition
p753
g2
Ntp754
Rp755
(dp756
g78
g0
(g79
g2
Ntp757
Rp758
(dp759
g15
Finf
sbsg83
g0
(g55
g2
Ntp760
Rp761
(dp762
g15
I0
sbsg54
g0
(g55
g2
Ntp763
Rp764
(dp765
g15
I1
sbsg90
g0
(g91
g2
Ntp766
Rp767
(dp768
g15
I00
sbsg59
g0
(g45
g2
Ntp769
Rp770
(dp771
g15
S'attributes'
p772
sbsg60
g52
sg95
g0
(g91
g2
Ntp773
Rp774
(dp775
g15
I00
sbsg99
g0
(g100
g2
Ntp776
Rp777
(dp778
g104
g107
sg78
g0
(g55
g2
Ntp779
Rp780
(dp781
g15
I1
sbsg83
g0
(g55
g2
Ntp782
Rp783
(dp784
g15
I1
sbsg167
g0
(g45
g2
Ntp785
Rp786
(dp787
g15
g171
sbsg90
g0
(g91
g2
Ntp788
Rp789
(dp790
g15
I00
sbsbsg61
g0
(g11
g2
Ntp791
Rp792
(dp793
g15
(dp794
sbsg179
g0
(g180
g2
Ntp795
Rp796
(dp797
g184
g0
(g17
g2
Ntp798
Rp799
(dp800
g15
g188
sbsbsg189
g0
(g11
g2
Ntp801
Rp802
(dp803
g15
(dp804
sbsg202
g0
(g100
g2
Ntp805
Rp806
(dp807
g104
g0
(g105
g2
Ntp808
Rp809
(dp810
g78
g0
(g79
g2
Ntp811
Rp812
(dp813
g15
Finf
sbsg83
g0
(g55
g2
Ntp814
Rp815
(dp816
g15
I0
sbsg54
g0
(g55
g2
Ntp817
Rp818
(dp819
g15
I1
sbsg90
g0
(g91
g2
Ntp820
Rp821
(dp822
g15
I00
sbsg59
g0
(g45
g2
Ntp823
Rp824
(dp825
g15
S'Attribute'
p826
sbsg60
g52
sg95
g0
(g91
g2
Ntp827
Rp828
(dp829
g15
I00
sbsg61
g0
(g11
g2
Ntp830
Rp831
(dp832
g15
(dp833
g0
(g17
g2
Ntp834
Rp835
(dp836
g15
S'protected.formalisms.SimpleClassDiagrams.attributes'
p837
sbg755
ssbsg179
g0
(g198
g2
Ntp838
Rp839
(dp840
g184
g0
(g17
g2
Ntp841
Rp842
(dp843
g15
g593
sbsbsg189
g0
(g11
g2
Ntp844
Rp845
(dp846
g15
(dp847
sbsg495
g0
(g11
g2
Ntp848
Rp849
(dp850
g15
(dp851
sbsg219
g0
(g11
g2
Ntp852
Rp853
(dp854
g15
(dp855
g0
(g45
g2
Ntp856
Rp857
(dp858
g15
S'default'
p859
sbg0
(g228
g2
Ntp860
Rp861
(dp862
g78
g0
(g55
g2
Ntp863
Rp864
(dp865
g15
I1
sbsg83
g0
(g55
g2
Ntp866
Rp867
(dp868
g15
I1
sbsg54
g0
(g55
g2
Ntp869
Rp870
(dp871
g15
I1
sbsg90
g0
(g91
g2
Ntp872
Rp873
(dp874
g15
I00
sbsg59
g857
sg60
g809
sg244
g0
(cmvk.impl.python.datavalue
AnyValue
p875
g2
Ntp876
Rp877
(dp878
g15
Nsbsg61
g0
(g11
g2
Ntp879
Rp880
(dp881
g15
(dp882
sbsg179
g0
(g198
g2
Ntp883
Rp884
(dp885
g184
g0
(g17
g2
Ntp886
Rp887
(dp888
g15
g258
sbsbsg219
g0
(g11
g2
Ntp889
Rp890
(dp891
g15
(dp892
sbsg263
g0
(cmvk.impl.python.datatype
AnyType
p893
g2
Ntp894
Rp895
sg280
g0
(g11
g2
Ntp896
Rp897
(dp898
g15
(dp899
sbsbsg0
(g45
g2
Ntp900
Rp901
(dp902
g15
S'type'
p903
sbg0
(g228
g2
Ntp904
Rp905
(dp906
g78
g0
(g55
g2
Ntp907
Rp908
(dp909
g15
I1
sbsg83
g0
(g55
g2
Ntp910
Rp911
(dp912
g15
I1
sbsg54
g0
(g55
g2
Ntp913
Rp914
(dp915
g15
I1
sbsg90
g0
(g91
g2
Ntp916
Rp917
(dp918
g15
I00
sbsg59
g901
sg60
g809
sg244
g0
(g893
g2
Ntp919
Rp920
sg61
g0
(g11
g2
Ntp921
Rp922
(dp923
g15
(dp924
sbsg179
g0
(g198
g2
Ntp925
Rp926
(dp927
g184
g0
(g17
g2
Ntp928
Rp929
(dp930
g15
g258
sbsbsg219
g0
(g11
g2
Ntp931
Rp932
(dp933
g15
(dp934
sbsg263
g0
(cmvk.impl.python.datatype
TypeType
p935
g2
Ntp936
Rp937
sg280
g0
(g11
g2
Ntp938
Rp939
(dp940
g15
(dp941
sbsbsg0
(g45
g2
Ntp942
Rp943
(dp944
g15
g656
sbg0
(g228
g2
Ntp945
Rp946
(dp947
g78
g0
(g55
g2
Ntp948
Rp949
(dp950
g15
I1
sbsg83
g0
(g55
g2
Ntp951
Rp952
(dp953
g15
I1
sbsg54
g0
(g55
g2
Ntp954
Rp955
(dp956
g15
I1
sbsg90
g0
(g91
g2
Ntp957
Rp958
(dp959
g15
I00
sbsg59
g943
sg60
g809
sg244
g0
(g45
g2
Ntp960
Rp961
(dp962
g15
g307
sbsg61
g0
(g11
g2
Ntp963
Rp964
(dp965
g15
(dp966
sbsg179
g0
(g198
g2
Ntp967
Rp968
(dp969
g184
g0
(g17
g2
Ntp970
Rp971
(dp972
g15
g258
sbsbsg219
g0
(g11
g2
Ntp973
Rp974
(dp975
g15
(dp976
sbsg263
g0
(g322
g2
Ntp977
Rp978
sg280
g0
(g11
g2
Ntp979
Rp980
(dp981
g15
(dp982
sbsbssbsg280
g0
(g11
g2
Ntp983
Rp984
(dp985
g15
(dp986
sbsbsg78
g0
(g79
g2
Ntp987
Rp988
(dp989
g15
Finf
sbsg83
g0
(g55
g2
Ntp990
Rp991
(dp992
g15
I0
sbsg167
g0
(g45
g2
Ntp993
Rp994
(dp995
g15
S'to_attr'
p996
sbsg90
g0
(g91
g2
Ntp997
Rp998
(dp999
g15
I00
sbsbsg219
g0
(g11
g2
Ntp1000
Rp1001
(dp1002
g15
(dp1003
g0
(g45
g2
Ntp1004
Rp1005
(dp1006
g15
g656
sbg0
(g228
g2
Ntp1007
Rp1008
(dp1009
g78
g0
(g55
g2
Ntp1010
Rp1011
(dp1012
g15
I1
sbsg83
g0
(g55
g2
Ntp1013
Rp1014
(dp1015
g15
I1
sbsg54
g0
(g55
g2
Ntp1016
Rp1017
(dp1018
g15
I1
sbsg90
g0
(g91
g2
Ntp1019
Rp1020
(dp1021
g15
I00
sbsg59
g1005
sg60
g755
sg244
g0
(g45
g2
Ntp1022
Rp1023
(dp1024
g15
g307
sbsg61
g0
(g11
g2
Ntp1025
Rp1026
(dp1027
g15
(dp1028
sbsg179
g0
(g198
g2
Ntp1029
Rp1030
(dp1031
g184
g0
(g17
g2
Ntp1032
Rp1033
(dp1034
g15
g258
sbsbsg219
g0
(g11
g2
Ntp1035
Rp1036
(dp1037
g15
(dp1038
sbsg263
g0
(g322
g2
Ntp1039
Rp1040
sg280
g0
(g11
g2
Ntp1041
Rp1042
(dp1043
g15
(dp1044
sbsbssbsg495
g0
(g11
g2
Ntp1045
Rp1046
(dp1047
g15
(dp1048
sbsg280
g0
(g11
g2
Ntp1049
Rp1050
(dp1051
g15
(dp1052
sbsbssbsbsg78
g0
(g79
g2
Ntp1053
Rp1054
(dp1055
g15
Finf
sbsg83
g0
(g55
g2
Ntp1056
Rp1057
(dp1058
g15
I0
sbsg167
g0
(g45
g2
Ntp1059
Rp1060
(dp1061
g15
g171
sbsg90
g0
(g91
g2
Ntp1062
Rp1063
(dp1064
g15
I00
sbsbsg61
g0
(g11
g2
Ntp1065
Rp1066
(dp1067
g15
(dp1068
sbsg179
g0
(g180
g2
Ntp1069
Rp1070
(dp1071
g184
g0
(g17
g2
Ntp1072
Rp1073
(dp1074
g15
g188
sbsbsg189
g0
(g11
g2
Ntp1075
Rp1076
(dp1077
g15
(dp1078
sbsg202
g0
(g100
g2
Ntp1079
Rp1080
(dp1081
g104
g107
sg78
g0
(g79
g2
Ntp1082
Rp1083
(dp1084
g15
Finf
sbsg83
g0
(g55
g2
Ntp1085
Rp1086
(dp1087
g15
I0
sbsg167
g0
(g45
g2
Ntp1088
Rp1089
(dp1090
g15
g215
sbsg90
g0
(g91
g2
Ntp1091
Rp1092
(dp1093
g15
I00
sbsbsg219
g0
(g11
g2
Ntp1094
Rp1095
(dp1096
g15
(dp1097
g0
(g45
g2
Ntp1098
Rp1099
(dp1100
g15
g656
sbg0
(g228
g2
Ntp1101
Rp1102
(dp1103
g78
g0
(g55
g2
Ntp1104
Rp1105
(dp1106
g15
I1
sbsg83
g0
(g55
g2
Ntp1107
Rp1108
(dp1109
g15
I1
sbsg54
g0
(g55
g2
Ntp1110
Rp1111
(dp1112
g15
I1
sbsg90
g0
(g91
g2
Ntp1113
Rp1114
(dp1115
g15
I00
sbsg59
g1099
sg60
g76
sg244
g0
(g45
g2
Ntp1116
Rp1117
(dp1118
g15
g307
sbsg61
g0
(g11
g2
Ntp1119
Rp1120
(dp1121
g15
(dp1122
sbsg179
g0
(g198
g2
Ntp1123
Rp1124
(dp1125
g184
g0
(g17
g2
Ntp1126
Rp1127
(dp1128
g15
g258
sbsbsg219
g0
(g11
g2
Ntp1129
Rp1130
(dp1131
g15
(dp1132
sbsg263
g0
(g322
g2
Ntp1133
Rp1134
sg280
g0
(g11
g2
Ntp1135
Rp1136
(dp1137
g15
(dp1138
sbsbssbsg495
g0
(g11
g2
Ntp1139
Rp1140
(dp1141
g15
(dp1142
sbsg280
g0
(g11
g2
Ntp1143
Rp1144
(dp1145
g15
(dp1146
sbsbsg824
g809
sg152
g137
sg770
g755
sg122
g107
sg525
g510
ssbsg219
g0
(g11
g2
Ntp1147
Rp1148
(dp1149
g15
(dp1150
g0
(g45
g2
Ntp1151
Rp1152
(dp1153
g15
g656
sbg0
(g228
g2
Ntp1154
Rp1155
(dp1156
g78
g0
(g55
g2
Ntp1157
Rp1158
(dp1159
g15
I1
sbsg83
g0
(g55
g2
Ntp1160
Rp1161
(dp1162
g15
I1
sbsg54
g0
(g55
g2
Ntp1163
Rp1164
(dp1165
g15
I1
sbsg90
g0
(g91
g2
Ntp1166
Rp1167
(dp1168
g15
I00
sbsg59
g1152
sg60
g52
sg244
g0
(g45
g2
Ntp1169
Rp1170
(dp1171
g15
g307
sbsg61
g0
(g11
g2
Ntp1172
Rp1173
(dp1174
g15
(dp1175
sbsg179
g0
(g198
g2
Ntp1176
Rp1177
(dp1178
g184
g0
(g17
g2
Ntp1179
Rp1180
(dp1181
g15
g258
sbsbsg219
g0
(g11
g2
Ntp1182
Rp1183
(dp1184
g15
(dp1185
sbsg263
g0
(g322
g2
Ntp1186
Rp1187
sg280
g0
(g11
g2
Ntp1188
Rp1189
(dp1190
g15
(dp1191
sbsbssbsg6
g0
(g7
g2
Ntp1192
Rp1193
sg280
g0
(g11
g2
Ntp1194
Rp1195
(dp1196
g15
(dp1197
sbsg179
g0
(cmvk.impl.python.object
ModelReference
p1198
g2
Ntp1199
Rp1200
(dp1201
g184
g0
(g17
g2
Ntp1202
Rp1203
(dp1204
g15
S'mvk.object'
p1205
sbsbsbsg0
(g45
g2
Ntp1206
Rp1207
(dp1208
g15
S'Transformation'
p1209
sbg0
(g50
g2
Ntp1210
Rp1211
(dp1212
g54
g0
(g55
g2
Ntp1213
Rp1214
(dp1215
g15
I1
sbsg59
g1207
sg60
g37
sg61
g0
(g11
g2
Ntp1216
Rp1217
(dp1218
g15
(dp1219
sbsg10
g0
(g11
g2
Ntp1220
Rp1221
(dp1222
g15
(dp1223
g0
(g45
g2
Ntp1224
Rp1225
(dp1226
g15
S'Rule_a_id'
p1227
sbg0
(g753
g2
Ntp1228
Rp1229
(dp1230
g78
g0
(g79
g2
Ntp1231
Rp1232
(dp1233
g15
Finf
sbsg83
g0
(g55
g2
Ntp1234
Rp1235
(dp1236
g15
I0
sbsg54
g0
(g55
g2
Ntp1237
Rp1238
(dp1239
g15
I0
sbsg90
g0
(g91
g2
Ntp1240
Rp1241
(dp1242
g15
I00
sbsg59
g1225
sg60
g1211
sg99
g0
(g100
g2
Ntp1243
Rp1244
(dp1245
g104
g0
(g105
g2
Ntp1246
Rp1247
(dp1248
g78
g0
(g79
g2
Ntp1249
Rp1250
(dp1251
g15
Finf
sbsg83
g0
(g55
g2
Ntp1252
Rp1253
(dp1254
g15
I0
sbsg54
g0
(g55
g2
Ntp1255
Rp1256
(dp1257
g15
I1
sbsg90
g0
(g91
g2
Ntp1258
Rp1259
(dp1260
g15
I00
sbsg59
g0
(g45
g2
Ntp1261
Rp1262
(dp1263
g15
S'Rule'
p1264
sbsg60
g1211
sg95
g0
(g91
g2
Ntp1265
Rp1266
(dp1267
g15
I00
sbsg61
g0
(g11
g2
Ntp1268
Rp1269
(dp1270
g15
(dp1271
sbsg179
g0
(g198
g2
Ntp1272
Rp1273
(dp1274
g184
g0
(g17
g2
Ntp1275
Rp1276
(dp1277
g15
g197
sbsbsg189
g0
(g11
g2
Ntp1278
Rp1279
(dp1280
g15
(dp1281
sbsg495
g0
(g11
g2
Ntp1282
Rp1283
(dp1284
g15
(dp1285
sbsg219
g0
(g11
g2
Ntp1286
Rp1287
(dp1288
g15
(dp1289
g0
(g45
g2
Ntp1290
Rp1291
(dp1292
g15
S'id'
p1293
sbg0
(g228
g2
Ntp1294
Rp1295
(dp1296
g78
g0
(g55
g2
Ntp1297
Rp1298
(dp1299
g15
I1
sbsg83
g0
(g55
g2
Ntp1300
Rp1301
(dp1302
g15
I1
sbsg54
g0
(g55
g2
Ntp1303
Rp1304
(dp1305
g15
I1
sbsg90
g0
(g91
g2
Ntp1306
Rp1307
(dp1308
g15
I00
sbsg59
g1291
sg60
g1247
sg244
g0
(g45
g2
Ntp1309
Rp1310
(dp1311
g15
g307
sbsg61
g0
(g11
g2
Ntp1312
Rp1313
(dp1314
g15
(dp1315
g0
(g17
g2
Ntp1316
Rp1317
(dp1318
g15
S'protected.formalisms.Transformation.Rule_a_id'
p1319
sbg1229
ssbsg179
g0
(g198
g2
Ntp1320
Rp1321
(dp1322
g184
g0
(g17
g2
Ntp1323
Rp1324
(dp1325
g15
S'protected.formalisms.SimpleClassDiagrams.Attribute'
p1326
sbsbsg219
g0
(g11
g2
Ntp1327
Rp1328
(dp1329
g15
(dp1330
sbsg263
g0
(g322
g2
Ntp1331
Rp1332
sg280
g0
(g11
g2
Ntp1333
Rp1334
(dp1335
g15
(dp1336
sbsbsg0
(g45
g2
Ntp1337
Rp1338
(dp1339
g15
S'Class.name'
p1340
sbg0
(g228
g2
Ntp1341
Rp1342
(dp1343
g78
g0
(g55
g2
Ntp1344
Rp1345
(dp1346
g15
I1
sbsg83
g0
(g55
g2
Ntp1347
Rp1348
(dp1349
g15
I1
sbsg54
g0
(g55
g2
Ntp1350
Rp1351
(dp1352
g15
I0
sbsg90
g0
(g91
g2
Ntp1353
Rp1354
(dp1355
g15
I00
sbsg59
g1338
sg60
g1247
sg15
g1262
sg61
g0
(g11
g2
Ntp1356
Rp1357
(dp1358
g15
(dp1359
sbsg179
g658
sg219
g0
(g11
g2
Ntp1360
Rp1361
(dp1362
g15
(dp1363
sbsg263
g690
sg280
g0
(g11
g2
Ntp1364
Rp1365
(dp1366
g15
(dp1367
sbsbsg0
(g45
g2
Ntp1368
Rp1369
(dp1370
g15
S'Class.is_abstract'
p1371
sbg0
(g228
g2
Ntp1372
Rp1373
(dp1374
g78
g0
(g55
g2
Ntp1375
Rp1376
(dp1377
g15
I1
sbsg83
g0
(g55
g2
Ntp1378
Rp1379
(dp1380
g15
I1
sbsg54
g0
(g55
g2
Ntp1381
Rp1382
(dp1383
g15
I0
sbsg90
g0
(g91
g2
Ntp1384
Rp1385
(dp1386
g15
I00
sbsg59
g1369
sg60
g1247
sg15
g1266
sg61
g0
(g11
g2
Ntp1387
Rp1388
(dp1389
g15
(dp1390
sbsg179
g615
sg219
g0
(g11
g2
Ntp1391
Rp1392
(dp1393
g15
(dp1394
sbsg263
g648
sg280
g0
(g11
g2
Ntp1395
Rp1396
(dp1397
g15
(dp1398
sbsbsg0
(g45
g2
Ntp1399
Rp1400
(dp1401
g15
S'Class.id_field'
p1402
sbg0
(g228
g2
Ntp1403
Rp1404
(dp1405
g78
g0
(g55
g2
Ntp1406
Rp1407
(dp1408
g15
I1
sbsg83
g0
(g55
g2
Ntp1409
Rp1410
(dp1411
g15
I1
sbsg54
g0
(g55
g2
Ntp1412
Rp1413
(dp1414
g15
I0
sbsg90
g0
(g91
g2
Ntp1415
Rp1416
(dp1417
g15
I00
sbsg59
g1400
sg60
g1247
sg15
g0
(g45
g2
Ntp1418
Rp1419
(dp1420
g15
S'Rule.id'
p1421
sbsg61
g0
(g11
g2
Ntp1422
Rp1423
(dp1424
g15
(dp1425
sbsg179
g700
sg219
g0
(g11
g2
Ntp1426
Rp1427
(dp1428
g15
(dp1429
sbsg263
g732
sg280
g0
(g11
g2
Ntp1430
Rp1431
(dp1432
g15
(dp1433
sbsbsg0
(g45
g2
Ntp1434
Rp1435
(dp1436
g15
S'rule_loc'
p1437
sbg0
(g228
g2
Ntp1438
Rp1439
(dp1440
g78
g0
(g55
g2
Ntp1441
Rp1442
(dp1443
g15
I1
sbsg83
g0
(g55
g2
Ntp1444
Rp1445
(dp1446
g15
I1
sbsg54
g0
(g55
g2
Ntp1447
Rp1448
(dp1449
g15
I1
sbsg90
g0
(g91
g2
Ntp1450
Rp1451
(dp1452
g15
I00
sbsg59
g1435
sg60
g1247
sg244
g0
(g17
g2
Ntp1453
Rp1454
(dp1455
g15
g307
sbsg61
g0
(g11
g2
Ntp1456
Rp1457
(dp1458
g15
(dp1459
g0
(g17
g2
Ntp1460
Rp1461
(dp1462
g15
S'protected.formalisms.Transformation.Rule_a_rule_loc'
p1463
sbg0
(g753
g2
Ntp1464
Rp1465
(dp1466
g78
g0
(g79
g2
Ntp1467
Rp1468
(dp1469
g15
Finf
sbsg83
g0
(g55
g2
Ntp1470
Rp1471
(dp1472
g15
I0
sbsg54
g0
(g55
g2
Ntp1473
Rp1474
(dp1475
g15
I0
sbsg90
g0
(g91
g2
Ntp1476
Rp1477
(dp1478
g15
I00
sbsg59
g0
(g45
g2
Ntp1479
Rp1480
(dp1481
g15
S'Rule_a_rule_loc'
p1482
sbsg60
g1211
sg99
g0
(g100
g2
Ntp1483
Rp1484
(dp1485
g104
g1247
sg78
g0
(g79
g2
Ntp1486
Rp1487
(dp1488
g15
Finf
sbsg83
g0
(g55
g2
Ntp1489
Rp1490
(dp1491
g15
I0
sbsg167
g786
sg90
g0
(g91
g2
Ntp1492
Rp1493
(dp1494
g15
I00
sbsbsg202
g0
(g100
g2
Ntp1495
Rp1496
(dp1497
g104
g1439
sg78
g0
(g79
g2
Ntp1498
Rp1499
(dp1500
g15
Finf
sbsg83
g0
(g55
g2
Ntp1501
Rp1502
(dp1503
g15
I0
sbsg167
g994
sg90
g0
(g91
g2
Ntp1504
Rp1505
(dp1506
g15
I00
sbsbsg61
g0
(g11
g2
Ntp1507
Rp1508
(dp1509
g15
(dp1510
sbsg179
g0
(g180
g2
Ntp1511
Rp1512
(dp1513
g184
g0
(g17
g2
Ntp1514
Rp1515
(dp1516
g15
S'protected.formalisms.SimpleClassDiagrams.attributes'
p1517
sbsbsg189
g0
(g11
g2
Ntp1518
Rp1519
(dp1520
g15
(dp1521
sbsg495
g0
(g11
g2
Ntp1522
Rp1523
(dp1524
g15
(dp1525
sbsg219
g0
(g11
g2
Ntp1526
Rp1527
(dp1528
g15
(dp1529
g0
(g45
g2
Ntp1530
Rp1531
(dp1532
g15
S'attributes.name'
p1533
sbg0
(g228
g2
Ntp1534
Rp1535
(dp1536
g78
g0
(g55
g2
Ntp1537
Rp1538
(dp1539
g15
I1
sbsg83
g0
(g55
g2
Ntp1540
Rp1541
(dp1542
g15
I1
sbsg54
g0
(g55
g2
Ntp1543
Rp1544
(dp1545
g15
I0
sbsg90
g0
(g91
g2
Ntp1546
Rp1547
(dp1548
g15
I00
sbsg59
g1531
sg60
g1465
sg15
g1480
sg61
g0
(g11
g2
Ntp1549
Rp1550
(dp1551
g15
(dp1552
sbsg179
g1008
sg219
g0
(g11
g2
Ntp1553
Rp1554
(dp1555
g15
(dp1556
sbsg263
g1040
sg280
g0
(g11
g2
Ntp1557
Rp1558
(dp1559
g15
(dp1560
sbsbssbsg280
g0
(g11
g2
Ntp1561
Rp1562
(dp1563
g15
(dp1564
sbsbssbsg179
g0
(g198
g2
Ntp1565
Rp1566
(dp1567
g184
g0
(g17
g2
Ntp1568
Rp1569
(dp1570
g15
g1326
sbsbsg219
g0
(g11
g2
Ntp1571
Rp1572
(dp1573
g15
(dp1574
sbsg263
g0
(cmvk.impl.python.datatype
LocationType
p1575
g2
Ntp1576
Rp1577
sg280
g0
(g11
g2
Ntp1578
Rp1579
(dp1580
g15
(dp1581
sbsbssbsg280
g0
(g11
g2
Ntp1582
Rp1583
(dp1584
g15
(dp1585
g0
(g17
g2
Ntp1586
Rp1587
(dp1588
g15
S'protected.formalisms.Transformation.Rule_a_rule_loc'
p1589
sbg1465
sg0
(g17
g2
Ntp1590
Rp1591
(dp1592
g15
S'protected.formalisms.Transformation.Rule_a_id'
p1593
sbg1229
ssbsbsg78
g0
(g79
g2
Ntp1594
Rp1595
(dp1596
g15
Finf
sbsg83
g0
(g55
g2
Ntp1597
Rp1598
(dp1599
g15
I0
sbsg167
g786
sg90
g0
(g91
g2
Ntp1600
Rp1601
(dp1602
g15
I00
sbsbsg202
g0
(g100
g2
Ntp1603
Rp1604
(dp1605
g104
g1295
sg78
g0
(g79
g2
Ntp1606
Rp1607
(dp1608
g15
Finf
sbsg83
g0
(g55
g2
Ntp1609
Rp1610
(dp1611
g15
I0
sbsg167
g994
sg90
g0
(g91
g2
Ntp1612
Rp1613
(dp1614
g15
I00
sbsbsg61
g0
(g11
g2
Ntp1615
Rp1616
(dp1617
g15
(dp1618
sbsg179
g0
(g180
g2
Ntp1619
Rp1620
(dp1621
g184
g0
(g17
g2
Ntp1622
Rp1623
(dp1624
g15
g1517
sbsbsg189
g0
(g11
g2
Ntp1625
Rp1626
(dp1627
g15
(dp1628
sbsg495
g0
(g11
g2
Ntp1629
Rp1630
(dp1631
g15
(dp1632
sbsg219
g0
(g11
g2
Ntp1633
Rp1634
(dp1635
g15
(dp1636
g0
(g45
g2
Ntp1637
Rp1638
(dp1639
g15
S'attributes.name'
p1640
sbg0
(g228
g2
Ntp1641
Rp1642
(dp1643
g78
g0
(g55
g2
Ntp1644
Rp1645
(dp1646
g15
I1
sbsg83
g0
(g55
g2
Ntp1647
Rp1648
(dp1649
g15
I1
sbsg54
g0
(g55
g2
Ntp1650
Rp1651
(dp1652
g15
I0
sbsg90
g0
(g91
g2
Ntp1653
Rp1654
(dp1655
g15
I00
sbsg59
g1638
sg60
g1229
sg15
g1225
sg61
g0
(g11
g2
Ntp1656
Rp1657
(dp1658
g15
(dp1659
sbsg179
g1008
sg219
g0
(g11
g2
Ntp1660
Rp1661
(dp1662
g15
(dp1663
sbsg263
g1040
sg280
g0
(g11
g2
Ntp1664
Rp1665
(dp1666
g15
(dp1667
sbsbssbsg280
g0
(g11
g2
Ntp1668
Rp1669
(dp1670
g15
(dp1671
sbsbsg1262
g1247
sg1480
g1465
ssbsg219
g0
(g11
g2
Ntp1672
Rp1673
(dp1674
g15
(dp1675
g0
(g45
g2
Ntp1676
Rp1677
(dp1678
g15
S'SimpleClassDiagrams.name'
p1679
sbg0
(g228
g2
Ntp1680
Rp1681
(dp1682
g78
g0
(g55
g2
Ntp1683
Rp1684
(dp1685
g15
I1
sbsg83
g0
(g55
g2
Ntp1686
Rp1687
(dp1688
g15
I1
sbsg54
g0
(g55
g2
Ntp1689
Rp1690
(dp1691
g15
I0
sbsg90
g0
(g91
g2
Ntp1692
Rp1693
(dp1694
g15
I00
sbsg59
g1677
sg60
g1211
sg15
g1207
sg61
g0
(g11
g2
Ntp1695
Rp1696
(dp1697
g15
(dp1698
sbsg179
g1155
sg219
g0
(g11
g2
Ntp1699
Rp1700
(dp1701
g15
(dp1702
sbsg263
g1187
sg280
g0
(g11
g2
Ntp1703
Rp1704
(dp1705
g15
(dp1706
sbsbsg0
(g45
g2
Ntp1707
Rp1708
(dp1709
g15
g656
sbg0
(g228
g2
Ntp1710
Rp1711
(dp1712
g78
g0
(g55
g2
Ntp1713
Rp1714
(dp1715
g15
I1
sbsg83
g0
(g55
g2
Ntp1716
Rp1717
(dp1718
g15
I1
sbsg54
g0
(g55
g2
Ntp1719
Rp1720
(dp1721
g15
I1
sbsg90
g0
(g91
g2
Ntp1722
Rp1723
(dp1724
g15
I00
sbsg59
g1708
sg60
g1211
sg244
g0
(g45
g2
Ntp1725
Rp1726
(dp1727
g15
g307
sbsg61
g0
(g11
g2
Ntp1728
Rp1729
(dp1730
g15
(dp1731
sbsg179
g0
(g198
g2
Ntp1732
Rp1733
(dp1734
g184
g0
(g17
g2
Ntp1735
Rp1736
(dp1737
g15
S'mvk.object.Attribute'
p1738
sbsbsg219
g0
(g11
g2
Ntp1739
Rp1740
(dp1741
g15
(dp1742
sbsg263
g0
(g322
g2
Ntp1743
Rp1744
sg280
g0
(g11
g2
Ntp1745
Rp1746
(dp1747
g15
(dp1748
sbsbssbsg6
g0
(g7
g2
Ntp1749
Rp1750
sg280
g0
(g11
g2
Ntp1751
Rp1752
(dp1753
g15
(dp1754
sbsg179
g0
(g1198
g2
Ntp1755
Rp1756
(dp1757
g184
g0
(g17
g2
Ntp1758
Rp1759
(dp1760
g15
S'protected.formalisms.SimpleClassDiagrams'
p1761
sbsbsbsg0
(g45
g2
Ntp1762
Rp1763
(dp1764
g15
g1264
sbg0
(g50
g2
Ntp1765
Rp1766
(dp1767
g54
g0
(g55
g2
Ntp1768
Rp1769
(dp1770
g15
I1
sbsg59
g1763
sg60
g37
sg61
g0
(g11
g2
Ntp1771
Rp1772
(dp1773
g15
(dp1774
sbsg10
g0
(g11
g2
Ntp1775
Rp1776
(dp1777
g15
(dp1778
g0
(g45
g2
Ntp1779
Rp1780
(dp1781
g15
S'NAC'
p1782
sbg0
(g105
g2
Ntp1783
Rp1784
(dp1785
g78
g0
(g79
g2
Ntp1786
Rp1787
(dp1788
g15
Finf
sbsg83
g0
(g55
g2
Ntp1789
Rp1790
(dp1791
g15
I0
sbsg54
g0
(g55
g2
Ntp1792
Rp1793
(dp1794
g15
I1
sbsg90
g0
(g91
g2
Ntp1795
Rp1796
(dp1797
g15
I00
sbsg59
g1780
sg60
g1766
sg95
g0
(g91
g2
Ntp1798
Rp1799
(dp1800
g15
I00
sbsg61
g0
(g11
g2
Ntp1801
Rp1802
(dp1803
g15
(dp1804
sbsg179
g0
(g198
g2
Ntp1805
Rp1806
(dp1807
g184
g0
(g17
g2
Ntp1808
Rp1809
(dp1810
g15
g197
sbsbsg189
g0
(g11
g2
Ntp1811
Rp1812
(dp1813
g15
(dp1814
g0
(g17
g2
Ntp1815
Rp1816
(dp1817
g15
S'protected.formalisms.Rule.MTpre_Pattern'
p1818
sbg0
(g198
g2
Ntp1819
Rp1820
(dp1821
g184
g1816
sbssbsg495
g0
(g11
g2
Ntp1822
Rp1823
(dp1824
g15
(dp1825
sbsg219
g0
(g11
g2
Ntp1826
Rp1827
(dp1828
g15
(dp1829
g0
(g45
g2
Ntp1830
Rp1831
(dp1832
g15
S'Class.name'
p1833
sbg0
(g228
g2
Ntp1834
Rp1835
(dp1836
g78
g0
(g55
g2
Ntp1837
Rp1838
(dp1839
g15
I1
sbsg83
g0
(g55
g2
Ntp1840
Rp1841
(dp1842
g15
I1
sbsg54
g0
(g55
g2
Ntp1843
Rp1844
(dp1845
g15
I0
sbsg90
g0
(g91
g2
Ntp1846
Rp1847
(dp1848
g15
I00
sbsg59
g1831
sg60
g1784
sg15
g1780
sg61
g0
(g11
g2
Ntp1849
Rp1850
(dp1851
g15
(dp1852
sbsg179
g658
sg219
g0
(g11
g2
Ntp1853
Rp1854
(dp1855
g15
(dp1856
sbsg263
g690
sg280
g0
(g11
g2
Ntp1857
Rp1858
(dp1859
g15
(dp1860
sbsbsg0
(g45
g2
Ntp1861
Rp1862
(dp1863
g15
S'Class.is_abstract'
p1864
sbg0
(g228
g2
Ntp1865
Rp1866
(dp1867
g78
g0
(g55
g2
Ntp1868
Rp1869
(dp1870
g15
I1
sbsg83
g0
(g55
g2
Ntp1871
Rp1872
(dp1873
g15
I1
sbsg54
g0
(g55
g2
Ntp1874
Rp1875
(dp1876
g15
I0
sbsg90
g0
(g91
g2
Ntp1877
Rp1878
(dp1879
g15
I00
sbsg59
g1862
sg60
g1784
sg15
g1799
sg61
g0
(g11
g2
Ntp1880
Rp1881
(dp1882
g15
(dp1883
sbsg179
g615
sg219
g0
(g11
g2
Ntp1884
Rp1885
(dp1886
g15
(dp1887
sbsg263
g648
sg280
g0
(g11
g2
Ntp1888
Rp1889
(dp1890
g15
(dp1891
sbsbssbsg280
g0
(g11
g2
Ntp1892
Rp1893
(dp1894
g15
(dp1895
g0
(g17
g2
Ntp1896
Rp1897
(dp1898
g15
S'protected.formalisms.Rule.nac_i_pattern'
p1899
sbg0
(g508
g2
Ntp1900
Rp1901
(dp1902
g78
g0
(g79
g2
Ntp1903
Rp1904
(dp1905
g15
Finf
sbsg83
g0
(g55
g2
Ntp1906
Rp1907
(dp1908
g15
I0
sbsg54
g0
(g55
g2
Ntp1909
Rp1910
(dp1911
g15
I0
sbsg90
g0
(g91
g2
Ntp1912
Rp1913
(dp1914
g15
I00
sbsg59
g0
(g45
g2
Ntp1915
Rp1916
(dp1917
g15
S'nac_i_pattern'
p1918
sbsg60
g1766
sg99
g0
(g100
g2
Ntp1919
Rp1920
(dp1921
g104
g1784
sg78
g0
(g79
g2
Ntp1922
Rp1923
(dp1924
g15
Finf
sbsg83
g0
(g55
g2
Ntp1925
Rp1926
(dp1927
g15
I0
sbsg167
g1060
sg90
g0
(g91
g2
Ntp1928
Rp1929
(dp1930
g15
I00
sbsbsg202
g0
(g100
g2
Ntp1931
Rp1932
(dp1933
g104
g0
(g105
g2
Ntp1934
Rp1935
(dp1936
g78
g0
(g79
g2
Ntp1937
Rp1938
(dp1939
g15
Finf
sbsg83
g0
(g55
g2
Ntp1940
Rp1941
(dp1942
g15
I0
sbsg54
g0
(g55
g2
Ntp1943
Rp1944
(dp1945
g15
I1
sbsg90
g0
(g91
g2
Ntp1946
Rp1947
(dp1948
g15
I00
sbsg59
g0
(g45
g2
Ntp1949
Rp1950
(dp1951
g15
S'MTpre_Pattern'
p1952
sbsg60
g1766
sg95
g0
(g91
g2
Ntp1953
Rp1954
(dp1955
g15
I01
sbsg61
g0
(g11
g2
Ntp1956
Rp1957
(dp1958
g15
(dp1959
g0
(g17
g2
Ntp1960
Rp1961
(dp1962
g15
S'protected.formalisms.Rule.lhs_i_pattern'
p1963
sbg0
(g508
g2
Ntp1964
Rp1965
(dp1966
g78
g0
(g79
g2
Ntp1967
Rp1968
(dp1969
g15
Finf
sbsg83
g0
(g55
g2
Ntp1970
Rp1971
(dp1972
g15
I0
sbsg54
g0
(g55
g2
Ntp1973
Rp1974
(dp1975
g15
I0
sbsg90
g0
(g91
g2
Ntp1976
Rp1977
(dp1978
g15
I00
sbsg59
g0
(g45
g2
Ntp1979
Rp1980
(dp1981
g15
S'lhs_i_pattern'
p1982
sbsg60
g1766
sg99
g0
(g100
g2
Ntp1983
Rp1984
(dp1985
g104
g0
(g105
g2
Ntp1986
Rp1987
(dp1988
g78
g0
(g79
g2
Ntp1989
Rp1990
(dp1991
g15
Finf
sbsg83
g0
(g55
g2
Ntp1992
Rp1993
(dp1994
g15
I0
sbsg54
g0
(g55
g2
Ntp1995
Rp1996
(dp1997
g15
I1
sbsg90
g0
(g91
g2
Ntp1998
Rp1999
(dp2000
g15
I00
sbsg59
g0
(g45
g2
Ntp2001
Rp2002
(dp2003
g15
S'LHS'
p2004
sbsg60
g1766
sg95
g0
(g91
g2
Ntp2005
Rp2006
(dp2007
g15
I00
sbsg61
g0
(g11
g2
Ntp2008
Rp2009
(dp2010
g15
(dp2011
sbsg179
g0
(g198
g2
Ntp2012
Rp2013
(dp2014
g184
g0
(g17
g2
Ntp2015
Rp2016
(dp2017
g15
g197
sbsbsg189
g0
(g11
g2
Ntp2018
Rp2019
(dp2020
g15
(dp2021
g0
(g17
g2
Ntp2022
Rp2023
(dp2024
g15
g1818
sbg0
(g198
g2
Ntp2025
Rp2026
(dp2027
g184
g2023
sbssbsg495
g0
(g11
g2
Ntp2028
Rp2029
(dp2030
g15
(dp2031
sbsg219
g0
(g11
g2
Ntp2032
Rp2033
(dp2034
g15
(dp2035
g0
(g45
g2
Ntp2036
Rp2037
(dp2038
g15
S'Class.name'
p2039
sbg0
(g228
g2
Ntp2040
Rp2041
(dp2042
g78
g0
(g55
g2
Ntp2043
Rp2044
(dp2045
g15
I1
sbsg83
g0
(g55
g2
Ntp2046
Rp2047
(dp2048
g15
I1
sbsg54
g0
(g55
g2
Ntp2049
Rp2050
(dp2051
g15
I0
sbsg90
g0
(g91
g2
Ntp2052
Rp2053
(dp2054
g15
I00
sbsg59
g2037
sg60
g1987
sg15
g2002
sg61
g0
(g11
g2
Ntp2055
Rp2056
(dp2057
g15
(dp2058
sbsg179
g658
sg219
g0
(g11
g2
Ntp2059
Rp2060
(dp2061
g15
(dp2062
sbsg263
g690
sg280
g0
(g11
g2
Ntp2063
Rp2064
(dp2065
g15
(dp2066
sbsbsg0
(g45
g2
Ntp2067
Rp2068
(dp2069
g15
S'Class.is_abstract'
p2070
sbg0
(g228
g2
Ntp2071
Rp2072
(dp2073
g78
g0
(g55
g2
Ntp2074
Rp2075
(dp2076
g15
I1
sbsg83
g0
(g55
g2
Ntp2077
Rp2078
(dp2079
g15
I1
sbsg54
g0
(g55
g2
Ntp2080
Rp2081
(dp2082
g15
I0
sbsg90
g0
(g91
g2
Ntp2083
Rp2084
(dp2085
g15
I00
sbsg59
g2068
sg60
g1987
sg15
g2006
sg61
g0
(g11
g2
Ntp2086
Rp2087
(dp2088
g15
(dp2089
sbsg179
g615
sg219
g0
(g11
g2
Ntp2090
Rp2091
(dp2092
g15
(dp2093
sbsg263
g648
sg280
g0
(g11
g2
Ntp2094
Rp2095
(dp2096
g15
(dp2097
sbsbssbsg280
g0
(g11
g2
Ntp2098
Rp2099
(dp2100
g15
(dp2101
g0
(g17
g2
Ntp2102
Rp2103
(dp2104
g15
S'protected.formalisms.Rule.lhs_i_pattern'
p2105
sbg1965
ssbsbsg78
g0
(g79
g2
Ntp2106
Rp2107
(dp2108
g15
Finf
sbsg83
g0
(g55
g2
Ntp2109
Rp2110
(dp2111
g15
I0
sbsg167
g1060
sg90
g0
(g91
g2
Ntp2112
Rp2113
(dp2114
g15
I00
sbsbsg202
g0
(g100
g2
Ntp2115
Rp2116
(dp2117
g104
g1935
sg78
g0
(g79
g2
Ntp2118
Rp2119
(dp2120
g15
Finf
sbsg83
g0
(g55
g2
Ntp2121
Rp2122
(dp2123
g15
I0
sbsg167
g1089
sg90
g0
(g91
g2
Ntp2124
Rp2125
(dp2126
g15
I00
sbsbsg61
g0
(g11
g2
Ntp2127
Rp2128
(dp2129
g15
(dp2130
sbsg179
g0
(g180
g2
Ntp2131
Rp2132
(dp2133
g184
g0
(g17
g2
Ntp2134
Rp2135
(dp2136
g15
S'protected.formalisms.SimpleClassDiagrams.Inheritance'
p2137
sbsbsg189
g0
(g11
g2
Ntp2138
Rp2139
(dp2140
g15
(dp2141
sbsg495
g0
(g11
g2
Ntp2142
Rp2143
(dp2144
g15
(dp2145
sbsg219
g0
(g11
g2
Ntp2146
Rp2147
(dp2148
g15
(dp2149
g0
(g45
g2
Ntp2150
Rp2151
(dp2152
g15
S'Inheritance.name'
p2153
sbg0
(g228
g2
Ntp2154
Rp2155
(dp2156
g78
g0
(g55
g2
Ntp2157
Rp2158
(dp2159
g15
I1
sbsg83
g0
(g55
g2
Ntp2160
Rp2161
(dp2162
g15
I1
sbsg54
g0
(g55
g2
Ntp2163
Rp2164
(dp2165
g15
I0
sbsg90
g0
(g91
g2
Ntp2166
Rp2167
(dp2168
g15
I00
sbsg59
g2151
sg60
g1965
sg15
g1980
sg61
g0
(g11
g2
Ntp2169
Rp2170
(dp2171
g15
(dp2172
sbsg179
g1102
sg219
g0
(g11
g2
Ntp2173
Rp2174
(dp2175
g15
(dp2176
sbsg263
g1134
sg280
g0
(g11
g2
Ntp2177
Rp2178
(dp2179
g15
(dp2180
sbsbssbsg280
g0
(g11
g2
Ntp2181
Rp2182
(dp2183
g15
(dp2184
sbsbsg0
(g17
g2
Ntp2185
Rp2186
(dp2187
g15
S'protected.formalisms.Rule.nac_i_pattern'
p2188
sbg1901
ssbsg179
g0
(g198
g2
Ntp2189
Rp2190
(dp2191
g184
g0
(g17
g2
Ntp2192
Rp2193
(dp2194
g15
g197
sbsbsg189
g0
(g11
g2
Ntp2195
Rp2196
(dp2197
g15
(dp2198
sbsg495
g0
(g11
g2
Ntp2199
Rp2200
(dp2201
g15
(dp2202
g0
(g17
g2
Ntp2203
Rp2204
(dp2205
g15
S'protected.formalisms.Rule.NAC'
p2206
sbg1784
sg0
(g17
g2
Ntp2207
Rp2208
(dp2209
g15
S'protected.formalisms.Rule.LHS'
p2210
sbg1987
ssbsg219
g0
(g11
g2
Ntp2211
Rp2212
(dp2213
g15
(dp2214
g0
(g45
g2
Ntp2215
Rp2216
(dp2217
g15
S'pattern_name'
p2218
sbg0
(g228
g2
Ntp2219
Rp2220
(dp2221
g78
g0
(g55
g2
Ntp2222
Rp2223
(dp2224
g15
I1
sbsg83
g0
(g55
g2
Ntp2225
Rp2226
(dp2227
g15
I1
sbsg54
g0
(g55
g2
Ntp2228
Rp2229
(dp2230
g15
I1
sbsg90
g0
(g91
g2
Ntp2231
Rp2232
(dp2233
g15
I00
sbsg59
g2216
sg60
g1935
sg244
g0
(g45
g2
Ntp2234
Rp2235
(dp2236
g15
g307
sbsg61
g0
(g11
g2
Ntp2237
Rp2238
(dp2239
g15
(dp2240
g0
(g17
g2
Ntp2241
Rp2242
(dp2243
g15
S'protected.formalisms.Rule.MTpre_Pattern_a_pattern_name'
p2244
sbg0
(g753
g2
Ntp2245
Rp2246
(dp2247
g78
g0
(g79
g2
Ntp2248
Rp2249
(dp2250
g15
Finf
sbsg83
g0
(g55
g2
Ntp2251
Rp2252
(dp2253
g15
I0
sbsg54
g0
(g55
g2
Ntp2254
Rp2255
(dp2256
g15
I0
sbsg90
g0
(g91
g2
Ntp2257
Rp2258
(dp2259
g15
I00
sbsg59
g0
(g45
g2
Ntp2260
Rp2261
(dp2262
g15
S'MTpre_Pattern_a_pattern_name'
p2263
sbsg60
g1766
sg99
g0
(g100
g2
Ntp2264
Rp2265
(dp2266
g104
g1935
sg78
g0
(g79
g2
Ntp2267
Rp2268
(dp2269
g15
Finf
sbsg83
g0
(g55
g2
Ntp2270
Rp2271
(dp2272
g15
I0
sbsg167
g786
sg90
g0
(g91
g2
Ntp2273
Rp2274
(dp2275
g15
I00
sbsbsg202
g0
(g100
g2
Ntp2276
Rp2277
(dp2278
g104
g2220
sg78
g0
(g79
g2
Ntp2279
Rp2280
(dp2281
g15
Finf
sbsg83
g0
(g55
g2
Ntp2282
Rp2283
(dp2284
g15
I0
sbsg167
g994
sg90
g0
(g91
g2
Ntp2285
Rp2286
(dp2287
g15
I00
sbsbsg61
g0
(g11
g2
Ntp2288
Rp2289
(dp2290
g15
(dp2291
sbsg179
g0
(g180
g2
Ntp2292
Rp2293
(dp2294
g184
g0
(g17
g2
Ntp2295
Rp2296
(dp2297
g15
g1517
sbsbsg189
g0
(g11
g2
Ntp2298
Rp2299
(dp2300
g15
(dp2301
sbsg495
g0
(g11
g2
Ntp2302
Rp2303
(dp2304
g15
(dp2305
sbsg219
g0
(g11
g2
Ntp2306
Rp2307
(dp2308
g15
(dp2309
g0
(g45
g2
Ntp2310
Rp2311
(dp2312
g15
S'attributes.name'
p2313
sbg0
(g228
g2
Ntp2314
Rp2315
(dp2316
g78
g0
(g55
g2
Ntp2317
Rp2318
(dp2319
g15
I1
sbsg83
g0
(g55
g2
Ntp2320
Rp2321
(dp2322
g15
I1
sbsg54
g0
(g55
g2
Ntp2323
Rp2324
(dp2325
g15
I0
sbsg90
g0
(g91
g2
Ntp2326
Rp2327
(dp2328
g15
I00
sbsg59
g2311
sg60
g2246
sg15
g2261
sg61
g0
(g11
g2
Ntp2329
Rp2330
(dp2331
g15
(dp2332
sbsg179
g1008
sg219
g0
(g11
g2
Ntp2333
Rp2334
(dp2335
g15
(dp2336
sbsg263
g1040
sg280
g0
(g11
g2
Ntp2337
Rp2338
(dp2339
g15
(dp2340
sbsbssbsg280
g0
(g11
g2
Ntp2341
Rp2342
(dp2343
g15
(dp2344
sbsbssbsg179
g0
(g198
g2
Ntp2345
Rp2346
(dp2347
g184
g0
(g17
g2
Ntp2348
Rp2349
(dp2350
g15
g1326
sbsbsg219
g0
(g11
g2
Ntp2351
Rp2352
(dp2353
g15
(dp2354
sbsg263
g0
(g322
g2
Ntp2355
Rp2356
sg280
g0
(g11
g2
Ntp2357
Rp2358
(dp2359
g15
(dp2360
sbsbsg0
(g45
g2
Ntp2361
Rp2362
(dp2363
g15
S'Class.name'
p2364
sbg0
(g228
g2
Ntp2365
Rp2366
(dp2367
g78
g0
(g55
g2
Ntp2368
Rp2369
(dp2370
g15
I1
sbsg83
g0
(g55
g2
Ntp2371
Rp2372
(dp2373
g15
I1
sbsg54
g0
(g55
g2
Ntp2374
Rp2375
(dp2376
g15
I0
sbsg90
g0
(g91
g2
Ntp2377
Rp2378
(dp2379
g15
I00
sbsg59
g2362
sg60
g1935
sg15
g1950
sg61
g0
(g11
g2
Ntp2380
Rp2381
(dp2382
g15
(dp2383
sbsg179
g658
sg219
g0
(g11
g2
Ntp2384
Rp2385
(dp2386
g15
(dp2387
sbsg263
g690
sg280
g0
(g11
g2
Ntp2388
Rp2389
(dp2390
g15
(dp2391
sbsbsg0
(g45
g2
Ntp2392
Rp2393
(dp2394
g15
S'Class.is_abstract'
p2395
sbg0
(g228
g2
Ntp2396
Rp2397
(dp2398
g78
g0
(g55
g2
Ntp2399
Rp2400
(dp2401
g15
I1
sbsg83
g0
(g55
g2
Ntp2402
Rp2403
(dp2404
g15
I1
sbsg54
g0
(g55
g2
Ntp2405
Rp2406
(dp2407
g15
I0
sbsg90
g0
(g91
g2
Ntp2408
Rp2409
(dp2410
g15
I00
sbsg59
g2393
sg60
g1935
sg15
g1954
sg61
g0
(g11
g2
Ntp2411
Rp2412
(dp2413
g15
(dp2414
sbsg179
g615
sg219
g0
(g11
g2
Ntp2415
Rp2416
(dp2417
g15
(dp2418
sbsg263
g648
sg280
g0
(g11
g2
Ntp2419
Rp2420
(dp2421
g15
(dp2422
sbsbsg0
(g45
g2
Ntp2423
Rp2424
(dp2425
g15
S'Class.id_field'
p2426
sbg0
(g228
g2
Ntp2427
Rp2428
(dp2429
g78
g0
(g55
g2
Ntp2430
Rp2431
(dp2432
g15
I1
sbsg83
g0
(g55
g2
Ntp2433
Rp2434
(dp2435
g15
I1
sbsg54
g0
(g55
g2
Ntp2436
Rp2437
(dp2438
g15
I0
sbsg90
g0
(g91
g2
Ntp2439
Rp2440
(dp2441
g15
I00
sbsg59
g2424
sg60
g1935
sg15
g0
(g45
g2
Ntp2442
Rp2443
(dp2444
g15
S'MTpre_Pattern.pattern_name'
p2445
sbsg61
g0
(g11
g2
Ntp2446
Rp2447
(dp2448
g15
(dp2449
sbsg179
g700
sg219
g0
(g11
g2
Ntp2450
Rp2451
(dp2452
g15
(dp2453
sbsg263
g732
sg280
g0
(g11
g2
Ntp2454
Rp2455
(dp2456
g15
(dp2457
sbsbsg0
(g45
g2
Ntp2458
Rp2459
(dp2460
g15
S'MT_constraint'
p2461
sbg0
(g228
g2
Ntp2462
Rp2463
(dp2464
g78
g0
(g55
g2
Ntp2465
Rp2466
(dp2467
g15
I1
sbsg83
g0
(g55
g2
Ntp2468
Rp2469
(dp2470
g15
I1
sbsg54
g0
(g55
g2
Ntp2471
Rp2472
(dp2473
g15
I1
sbsg90
g0
(g91
g2
Ntp2474
Rp2475
(dp2476
g15
I00
sbsg59
g2459
sg60
g1935
sg244
g0
(g45
g2
Ntp2477
Rp2478
(dp2479
g15
S'True'
p2480
sbsg61
g0
(g11
g2
Ntp2481
Rp2482
(dp2483
g15
(dp2484
g0
(g17
g2
Ntp2485
Rp2486
(dp2487
g15
S'protected.formalisms.Rule.MTpre_Pattern_a_MT_constraint'
p2488
sbg0
(g753
g2
Ntp2489
Rp2490
(dp2491
g78
g0
(g79
g2
Ntp2492
Rp2493
(dp2494
g15
Finf
sbsg83
g0
(g55
g2
Ntp2495
Rp2496
(dp2497
g15
I0
sbsg54
g0
(g55
g2
Ntp2498
Rp2499
(dp2500
g15
I0
sbsg90
g0
(g91
g2
Ntp2501
Rp2502
(dp2503
g15
I00
sbsg59
g0
(g45
g2
Ntp2504
Rp2505
(dp2506
g15
S'MTpre_Pattern_a_MT_constraint'
p2507
sbsg60
g1766
sg99
g0
(g100
g2
Ntp2508
Rp2509
(dp2510
g104
g1935
sg78
g0
(g79
g2
Ntp2511
Rp2512
(dp2513
g15
Finf
sbsg83
g0
(g55
g2
Ntp2514
Rp2515
(dp2516
g15
I0
sbsg167
g786
sg90
g0
(g91
g2
Ntp2517
Rp2518
(dp2519
g15
I00
sbsbsg202
g0
(g100
g2
Ntp2520
Rp2521
(dp2522
g104
g2463
sg78
g0
(g79
g2
Ntp2523
Rp2524
(dp2525
g15
Finf
sbsg83
g0
(g55
g2
Ntp2526
Rp2527
(dp2528
g15
I0
sbsg167
g994
sg90
g0
(g91
g2
Ntp2529
Rp2530
(dp2531
g15
I00
sbsbsg61
g0
(g11
g2
Ntp2532
Rp2533
(dp2534
g15
(dp2535
sbsg179
g0
(g180
g2
Ntp2536
Rp2537
(dp2538
g184
g0
(g17
g2
Ntp2539
Rp2540
(dp2541
g15
g1517
sbsbsg189
g0
(g11
g2
Ntp2542
Rp2543
(dp2544
g15
(dp2545
sbsg495
g0
(g11
g2
Ntp2546
Rp2547
(dp2548
g15
(dp2549
sbsg219
g0
(g11
g2
Ntp2550
Rp2551
(dp2552
g15
(dp2553
g0
(g45
g2
Ntp2554
Rp2555
(dp2556
g15
S'attributes.name'
p2557
sbg0
(g228
g2
Ntp2558
Rp2559
(dp2560
g78
g0
(g55
g2
Ntp2561
Rp2562
(dp2563
g15
I1
sbsg83
g0
(g55
g2
Ntp2564
Rp2565
(dp2566
g15
I1
sbsg54
g0
(g55
g2
Ntp2567
Rp2568
(dp2569
g15
I0
sbsg90
g0
(g91
g2
Ntp2570
Rp2571
(dp2572
g15
I00
sbsg59
g2555
sg60
g2490
sg15
g2505
sg61
g0
(g11
g2
Ntp2573
Rp2574
(dp2575
g15
(dp2576
sbsg179
g1008
sg219
g0
(g11
g2
Ntp2577
Rp2578
(dp2579
g15
(dp2580
sbsg263
g1040
sg280
g0
(g11
g2
Ntp2581
Rp2582
(dp2583
g15
(dp2584
sbsbssbsg280
g0
(g11
g2
Ntp2585
Rp2586
(dp2587
g15
(dp2588
sbsbssbsg179
g0
(g198
g2
Ntp2589
Rp2590
(dp2591
g184
g0
(g17
g2
Ntp2592
Rp2593
(dp2594
g15
g1326
sbsbsg219
g0
(g11
g2
Ntp2595
Rp2596
(dp2597
g15
(dp2598
sbsg263
g2356
sg280
g0
(g11
g2
Ntp2599
Rp2600
(dp2601
g15
(dp2602
sbsbssbsg280
g0
(g11
g2
Ntp2603
Rp2604
(dp2605
g15
(dp2606
g0
(g17
g2
Ntp2607
Rp2608
(dp2609
g15
S'protected.formalisms.Rule.MTpre_Contents'
p2610
sbg0
(g74
g2
Ntp2611
Rp2612
(dp2613
g78
g0
(g79
g2
Ntp2614
Rp2615
(dp2616
g15
Finf
sbsg83
g0
(g55
g2
Ntp2617
Rp2618
(dp2619
g15
I0
sbsg54
g0
(g55
g2
Ntp2620
Rp2621
(dp2622
g15
I1
sbsg90
g0
(g91
g2
Ntp2623
Rp2624
(dp2625
g15
I00
sbsg59
g0
(g45
g2
Ntp2626
Rp2627
(dp2628
g15
S'MTpre_Contents'
p2629
sbsg60
g1766
sg95
g0
(g91
g2
Ntp2630
Rp2631
(dp2632
g15
I00
sbsg99
g0
(g100
g2
Ntp2633
Rp2634
(dp2635
g104
g1935
sg78
g0
(g79
g2
Ntp2636
Rp2637
(dp2638
g15
Finf
sbsg83
g0
(g55
g2
Ntp2639
Rp2640
(dp2641
g15
I0
sbsg167
g0
(g45
g2
Ntp2642
Rp2643
(dp2644
g15
S'from_pattern'
p2645
sbsg90
g0
(g91
g2
Ntp2646
Rp2647
(dp2648
g15
I00
sbsbsg61
g0
(g11
g2
Ntp2649
Rp2650
(dp2651
g15
(dp2652
sbsg179
g0
(g180
g2
Ntp2653
Rp2654
(dp2655
g184
g0
(g17
g2
Ntp2656
Rp2657
(dp2658
g15
S'protected.formalisms.SimpleClassDiagrams.Association'
p2659
sbsbsg189
g0
(g11
g2
Ntp2660
Rp2661
(dp2662
g15
(dp2663
sbsg202
g0
(g100
g2
Ntp2664
Rp2665
(dp2666
g104
g0
(g105
g2
Ntp2667
Rp2668
(dp2669
g78
g0
(g79
g2
Ntp2670
Rp2671
(dp2672
g15
Finf
sbsg83
g0
(g55
g2
Ntp2673
Rp2674
(dp2675
g15
I0
sbsg54
g0
(g55
g2
Ntp2676
Rp2677
(dp2678
g15
I1
sbsg90
g0
(g91
g2
Ntp2679
Rp2680
(dp2681
g15
I00
sbsg59
g0
(g45
g2
Ntp2682
Rp2683
(dp2684
g15
S'MTpre_Element'
p2685
sbsg60
g1766
sg95
g0
(g91
g2
Ntp2686
Rp2687
(dp2688
g15
I01
sbsg61
g0
(g11
g2
Ntp2689
Rp2690
(dp2691
g15
(dp2692
g0
(g17
g2
Ntp2693
Rp2694
(dp2695
g15
S'protected.formalisms.Rule.MTpre_Contents'
p2696
sbg2612
sg0
(g17
g2
Ntp2697
Rp2698
(dp2699
g15
S'protected.formalisms.Rule.MTpre_Association'
p2700
sbg0
(g74
g2
Ntp2701
Rp2702
(dp2703
g78
g0
(g79
g2
Ntp2704
Rp2705
(dp2706
g15
Finf
sbsg83
g0
(g55
g2
Ntp2707
Rp2708
(dp2709
g15
I0
sbsg54
g0
(g55
g2
Ntp2710
Rp2711
(dp2712
g15
I1
sbsg90
g0
(g91
g2
Ntp2713
Rp2714
(dp2715
g15
I00
sbsg59
g0
(g45
g2
Ntp2716
Rp2717
(dp2718
g15
S'MTpre_Association'
p2719
sbsg60
g1766
sg95
g0
(g91
g2
Ntp2720
Rp2721
(dp2722
g15
I01
sbsg99
g0
(g100
g2
Ntp2723
Rp2724
(dp2725
g104
g2668
sg78
g0
(g79
g2
Ntp2726
Rp2727
(dp2728
g15
Finf
sbsg83
g0
(g55
g2
Ntp2729
Rp2730
(dp2731
g15
I0
sbsg167
g0
(g45
g2
Ntp2732
Rp2733
(dp2734
g15
S'from_el'
p2735
sbsg90
g0
(g91
g2
Ntp2736
Rp2737
(dp2738
g15
I00
sbsbsg61
g0
(g11
g2
Ntp2739
Rp2740
(dp2741
g15
(dp2742
sbsg179
g0
(g180
g2
Ntp2743
Rp2744
(dp2745
g184
g0
(g17
g2
Ntp2746
Rp2747
(dp2748
g15
g2659
sbsbsg189
g0
(g11
g2
Ntp2749
Rp2750
(dp2751
g15
(dp2752
g0
(g17
g2
Ntp2753
Rp2754
(dp2755
g15
S'protected.formalisms.Rule.MT_Association'
p2756
sbg0
(g198
g2
Ntp2757
Rp2758
(dp2759
g184
g2754
sbssbsg202
g0
(g100
g2
Ntp2760
Rp2761
(dp2762
g104
g2668
sg78
g0
(g79
g2
Ntp2763
Rp2764
(dp2765
g15
Finf
sbsg83
g0
(g55
g2
Ntp2766
Rp2767
(dp2768
g15
I0
sbsg167
g0
(g45
g2
Ntp2769
Rp2770
(dp2771
g15
S'to_el'
p2772
sbsg90
g0
(g91
g2
Ntp2773
Rp2774
(dp2775
g15
I00
sbsbsg219
g0
(g11
g2
Ntp2776
Rp2777
(dp2778
g15
(dp2779
g0
(g45
g2
Ntp2780
Rp2781
(dp2782
g15
S'Association.to_min'
p2783
sbg0
(g228
g2
Ntp2784
Rp2785
(dp2786
g78
g0
(g55
g2
Ntp2787
Rp2788
(dp2789
g15
I1
sbsg83
g0
(g55
g2
Ntp2790
Rp2791
(dp2792
g15
I1
sbsg54
g0
(g55
g2
Ntp2793
Rp2794
(dp2795
g15
I0
sbsg90
g0
(g91
g2
Ntp2796
Rp2797
(dp2798
g15
I00
sbsg59
g2781
sg60
g2702
sg15
g2767
sg61
g0
(g11
g2
Ntp2799
Rp2800
(dp2801
g15
(dp2802
sbsg179
g458
sg219
g0
(g11
g2
Ntp2803
Rp2804
(dp2805
g15
(dp2806
sbsg263
g490
sg280
g0
(g11
g2
Ntp2807
Rp2808
(dp2809
g15
(dp2810
sbsbsg0
(g45
g2
Ntp2811
Rp2812
(dp2813
g15
S'Association.to_port'
p2814
sbg0
(g228
g2
Ntp2815
Rp2816
(dp2817
g78
g0
(g55
g2
Ntp2818
Rp2819
(dp2820
g15
I1
sbsg83
g0
(g55
g2
Ntp2821
Rp2822
(dp2823
g15
I1
sbsg54
g0
(g55
g2
Ntp2824
Rp2825
(dp2826
g15
I0
sbsg90
g0
(g91
g2
Ntp2827
Rp2828
(dp2829
g15
I00
sbsg59
g2812
sg60
g2702
sg15
g2770
sg61
g0
(g11
g2
Ntp2830
Rp2831
(dp2832
g15
(dp2833
sbsg179
g290
sg219
g0
(g11
g2
Ntp2834
Rp2835
(dp2836
g15
(dp2837
sbsg263
g324
sg280
g0
(g11
g2
Ntp2838
Rp2839
(dp2840
g15
(dp2841
sbsbsg0
(g45
g2
Ntp2842
Rp2843
(dp2844
g15
S'Association.from_port'
p2845
sbg0
(g228
g2
Ntp2846
Rp2847
(dp2848
g78
g0
(g55
g2
Ntp2849
Rp2850
(dp2851
g15
I1
sbsg83
g0
(g55
g2
Ntp2852
Rp2853
(dp2854
g15
I1
sbsg54
g0
(g55
g2
Ntp2855
Rp2856
(dp2857
g15
I0
sbsg90
g0
(g91
g2
Ntp2858
Rp2859
(dp2860
g15
I00
sbsg59
g2843
sg60
g2702
sg15
g2733
sg61
g0
(g11
g2
Ntp2861
Rp2862
(dp2863
g15
(dp2864
sbsg179
g416
sg219
g0
(g11
g2
Ntp2865
Rp2866
(dp2867
g15
(dp2868
sbsg263
g448
sg280
g0
(g11
g2
Ntp2869
Rp2870
(dp2871
g15
(dp2872
sbsbsg0
(g45
g2
Ntp2873
Rp2874
(dp2875
g15
S'Association.from_min'
p2876
sbg0
(g228
g2
Ntp2877
Rp2878
(dp2879
g78
g0
(g55
g2
Ntp2880
Rp2881
(dp2882
g15
I1
sbsg83
g0
(g55
g2
Ntp2883
Rp2884
(dp2885
g15
I1
sbsg54
g0
(g55
g2
Ntp2886
Rp2887
(dp2888
g15
I0
sbsg90
g0
(g91
g2
Ntp2889
Rp2890
(dp2891
g15
I00
sbsg59
g2874
sg60
g2702
sg15
g2730
sg61
g0
(g11
g2
Ntp2892
Rp2893
(dp2894
g15
(dp2895
sbsg179
g374
sg219
g0
(g11
g2
Ntp2896
Rp2897
(dp2898
g15
(dp2899
sbsg263
g406
sg280
g0
(g11
g2
Ntp2900
Rp2901
(dp2902
g15
(dp2903
sbsbsg0
(g45
g2
Ntp2904
Rp2905
(dp2906
g15
S'Class.name'
p2907
sbg0
(g228
g2
Ntp2908
Rp2909
(dp2910
g78
g0
(g55
g2
Ntp2911
Rp2912
(dp2913
g15
I1
sbsg83
g0
(g55
g2
Ntp2914
Rp2915
(dp2916
g15
I1
sbsg54
g0
(g55
g2
Ntp2917
Rp2918
(dp2919
g15
I0
sbsg90
g0
(g91
g2
Ntp2920
Rp2921
(dp2922
g15
I00
sbsg59
g2905
sg60
g2702
sg15
g2717
sg61
g0
(g11
g2
Ntp2923
Rp2924
(dp2925
g15
(dp2926
sbsg179
g658
sg219
g0
(g11
g2
Ntp2927
Rp2928
(dp2929
g15
(dp2930
sbsg263
g690
sg280
g0
(g11
g2
Ntp2931
Rp2932
(dp2933
g15
(dp2934
sbsbsg0
(g45
g2
Ntp2935
Rp2936
(dp2937
g15
S'Class.is_abstract'
p2938
sbg0
(g228
g2
Ntp2939
Rp2940
(dp2941
g78
g0
(g55
g2
Ntp2942
Rp2943
(dp2944
g15
I1
sbsg83
g0
(g55
g2
Ntp2945
Rp2946
(dp2947
g15
I1
sbsg54
g0
(g55
g2
Ntp2948
Rp2949
(dp2950
g15
I0
sbsg90
g0
(g91
g2
Ntp2951
Rp2952
(dp2953
g15
I00
sbsg59
g2936
sg60
g2702
sg15
g2721
sg61
g0
(g11
g2
Ntp2954
Rp2955
(dp2956
g15
(dp2957
sbsg179
g615
sg219
g0
(g11
g2
Ntp2958
Rp2959
(dp2960
g15
(dp2961
sbsg263
g648
sg280
g0
(g11
g2
Ntp2962
Rp2963
(dp2964
g15
(dp2965
sbsbsg0
(g45
g2
Ntp2966
Rp2967
(dp2968
g15
S'Association.to_max'
p2969
sbg0
(g228
g2
Ntp2970
Rp2971
(dp2972
g78
g0
(g55
g2
Ntp2973
Rp2974
(dp2975
g15
I1
sbsg83
g0
(g55
g2
Ntp2976
Rp2977
(dp2978
g15
I1
sbsg54
g0
(g55
g2
Ntp2979
Rp2980
(dp2981
g15
I0
sbsg90
g0
(g91
g2
Ntp2982
Rp2983
(dp2984
g15
I00
sbsg59
g2967
sg60
g2702
sg15
g2764
sg61
g0
(g11
g2
Ntp2985
Rp2986
(dp2987
g15
(dp2988
sbsg179
g334
sg219
g0
(g11
g2
Ntp2989
Rp2990
(dp2991
g15
(dp2992
sbsg263
g266
sg280
g0
(g11
g2
Ntp2993
Rp2994
(dp2995
g15
(dp2996
sbsbsg0
(g45
g2
Ntp2997
Rp2998
(dp2999
g15
S'Association.from_max'
p3000
sbg0
(g228
g2
Ntp3001
Rp3002
(dp3003
g78
g0
(g55
g2
Ntp3004
Rp3005
(dp3006
g15
I1
sbsg83
g0
(g55
g2
Ntp3007
Rp3008
(dp3009
g15
I1
sbsg54
g0
(g55
g2
Ntp3010
Rp3011
(dp3012
g15
I0
sbsg90
g0
(g91
g2
Ntp3013
Rp3014
(dp3015
g15
I00
sbsg59
g2998
sg60
g2702
sg15
g2727
sg61
g0
(g11
g2
Ntp3016
Rp3017
(dp3018
g15
(dp3019
sbsg179
g230
sg219
g0
(g11
g2
Ntp3020
Rp3021
(dp3022
g15
(dp3023
sbsg263
g266
sg280
g0
(g11
g2
Ntp3024
Rp3025
(dp3026
g15
(dp3027
sbsbssbsg495
g0
(g11
g2
Ntp3028
Rp3029
(dp3030
g15
(dp3031
sbsg280
g0
(g11
g2
Ntp3032
Rp3033
(dp3034
g15
(dp3035
g0
(g17
g2
Ntp3036
Rp3037
(dp3038
g15
S'protected.formalisms.Rule.pre_i_assoc'
p3039
sbg0
(g508
g2
Ntp3040
Rp3041
(dp3042
g78
g0
(g79
g2
Ntp3043
Rp3044
(dp3045
g15
Finf
sbsg83
g0
(g55
g2
Ntp3046
Rp3047
(dp3048
g15
I0
sbsg54
g0
(g55
g2
Ntp3049
Rp3050
(dp3051
g15
I0
sbsg90
g0
(g91
g2
Ntp3052
Rp3053
(dp3054
g15
I00
sbsg59
g0
(g45
g2
Ntp3055
Rp3056
(dp3057
g15
S'pre_i_assoc'
p3058
sbsg60
g1766
sg99
g0
(g100
g2
Ntp3059
Rp3060
(dp3061
g104
g2702
sg78
g0
(g79
g2
Ntp3062
Rp3063
(dp3064
g15
Finf
sbsg83
g0
(g55
g2
Ntp3065
Rp3066
(dp3067
g15
I0
sbsg167
g1060
sg90
g0
(g91
g2
Ntp3068
Rp3069
(dp3070
g15
I00
sbsbsg202
g0
(g100
g2
Ntp3071
Rp3072
(dp3073
g104
g0
(g74
g2
Ntp3074
Rp3075
(dp3076
g78
g0
(g79
g2
Ntp3077
Rp3078
(dp3079
g15
Finf
sbsg83
g0
(g55
g2
Ntp3080
Rp3081
(dp3082
g15
I0
sbsg54
g0
(g55
g2
Ntp3083
Rp3084
(dp3085
g15
I1
sbsg90
g0
(g91
g2
Ntp3086
Rp3087
(dp3088
g15
I00
sbsg59
g0
(g45
g2
Ntp3089
Rp3090
(dp3091
g15
S'MT_Association'
p3092
sbsg60
g1766
sg95
g0
(g91
g2
Ntp3093
Rp3094
(dp3095
g15
I01
sbsg99
g0
(g100
g2
Ntp3096
Rp3097
(dp3098
g104
g0
(g105
g2
Ntp3099
Rp3100
(dp3101
g78
g0
(g79
g2
Ntp3102
Rp3103
(dp3104
g15
Finf
sbsg83
g0
(g55
g2
Ntp3105
Rp3106
(dp3107
g15
I0
sbsg54
g0
(g55
g2
Ntp3108
Rp3109
(dp3110
g15
I1
sbsg90
g0
(g91
g2
Ntp3111
Rp3112
(dp3113
g15
I00
sbsg59
g0
(g45
g2
Ntp3114
Rp3115
(dp3116
g15
S'MT_Element'
p3117
sbsg60
g1766
sg95
g0
(g91
g2
Ntp3118
Rp3119
(dp3120
g15
I01
sbsg61
g0
(g11
g2
Ntp3121
Rp3122
(dp3123
g15
(dp3124
g0
(g17
g2
Ntp3125
Rp3126
(dp3127
g15
S'protected.formalisms.Rule.pre_i_el'
p3128
sbg0
(g508
g2
Ntp3129
Rp3130
(dp3131
g78
g0
(g79
g2
Ntp3132
Rp3133
(dp3134
g15
Finf
sbsg83
g0
(g55
g2
Ntp3135
Rp3136
(dp3137
g15
I0
sbsg54
g0
(g55
g2
Ntp3138
Rp3139
(dp3140
g15
I0
sbsg90
g0
(g91
g2
Ntp3141
Rp3142
(dp3143
g15
I00
sbsg59
g0
(g45
g2
Ntp3144
Rp3145
(dp3146
g15
S'pre_i_el'
p3147
sbsg60
g1766
sg99
g0
(g100
g2
Ntp3148
Rp3149
(dp3150
g104
g2668
sg78
g0
(g79
g2
Ntp3151
Rp3152
(dp3153
g15
Finf
sbsg83
g0
(g55
g2
Ntp3154
Rp3155
(dp3156
g15
I0
sbsg167
g1060
sg90
g0
(g91
g2
Ntp3157
Rp3158
(dp3159
g15
I00
sbsbsg202
g0
(g100
g2
Ntp3160
Rp3161
(dp3162
g104
g3100
sg78
g0
(g79
g2
Ntp3163
Rp3164
(dp3165
g15
Finf
sbsg83
g0
(g55
g2
Ntp3166
Rp3167
(dp3168
g15
I0
sbsg167
g1089
sg90
g0
(g91
g2
Ntp3169
Rp3170
(dp3171
g15
I00
sbsbsg61
g0
(g11
g2
Ntp3172
Rp3173
(dp3174
g15
(dp3175
sbsg179
g0
(g180
g2
Ntp3176
Rp3177
(dp3178
g184
g0
(g17
g2
Ntp3179
Rp3180
(dp3181
g15
g2137
sbsbsg189
g0
(g11
g2
Ntp3182
Rp3183
(dp3184
g15
(dp3185
sbsg495
g0
(g11
g2
Ntp3186
Rp3187
(dp3188
g15
(dp3189
sbsg219
g0
(g11
g2
Ntp3190
Rp3191
(dp3192
g15
(dp3193
g0
(g45
g2
Ntp3194
Rp3195
(dp3196
g15
S'Inheritance.name'
p3197
sbg0
(g228
g2
Ntp3198
Rp3199
(dp3200
g78
g0
(g55
g2
Ntp3201
Rp3202
(dp3203
g15
I1
sbsg83
g0
(g55
g2
Ntp3204
Rp3205
(dp3206
g15
I1
sbsg54
g0
(g55
g2
Ntp3207
Rp3208
(dp3209
g15
I0
sbsg90
g0
(g91
g2
Ntp3210
Rp3211
(dp3212
g15
I00
sbsg59
g3195
sg60
g3130
sg15
g3145
sg61
g0
(g11
g2
Ntp3213
Rp3214
(dp3215
g15
(dp3216
sbsg179
g1102
sg219
g0
(g11
g2
Ntp3217
Rp3218
(dp3219
g15
(dp3220
sbsg263
g1134
sg280
g0
(g11
g2
Ntp3221
Rp3222
(dp3223
g15
(dp3224
sbsbssbsg280
g0
(g11
g2
Ntp3225
Rp3226
(dp3227
g15
(dp3228
sbsbsg0
(g17
g2
Ntp3229
Rp3230
(dp3231
g15
S'protected.formalisms.Rule.post_i_el'
p3232
sbg0
(g508
g2
Ntp3233
Rp3234
(dp3235
g78
g0
(g79
g2
Ntp3236
Rp3237
(dp3238
g15
Finf
sbsg83
g0
(g55
g2
Ntp3239
Rp3240
(dp3241
g15
I0
sbsg54
g0
(g55
g2
Ntp3242
Rp3243
(dp3244
g15
I0
sbsg90
g0
(g91
g2
Ntp3245
Rp3246
(dp3247
g15
I00
sbsg59
g0
(g45
g2
Ntp3248
Rp3249
(dp3250
g15
S'post_i_el'
p3251
sbsg60
g1766
sg99
g0
(g100
g2
Ntp3252
Rp3253
(dp3254
g104
g0
(g105
g2
Ntp3255
Rp3256
(dp3257
g78
g0
(g79
g2
Ntp3258
Rp3259
(dp3260
g15
Finf
sbsg83
g0
(g55
g2
Ntp3261
Rp3262
(dp3263
g15
I0
sbsg54
g0
(g55
g2
Ntp3264
Rp3265
(dp3266
g15
I1
sbsg90
g0
(g91
g2
Ntp3267
Rp3268
(dp3269
g15
I00
sbsg59
g0
(g45
g2
Ntp3270
Rp3271
(dp3272
g15
S'MTpost_Element'
p3273
sbsg60
g1766
sg95
g0
(g91
g2
Ntp3274
Rp3275
(dp3276
g15
I01
sbsg61
g0
(g11
g2
Ntp3277
Rp3278
(dp3279
g15
(dp3280
g0
(g17
g2
Ntp3281
Rp3282
(dp3283
g15
S'protected.formalisms.Rule.MTpost_Association'
p3284
sbg0
(g74
g2
Ntp3285
Rp3286
(dp3287
g78
g0
(g79
g2
Ntp3288
Rp3289
(dp3290
g15
Finf
sbsg83
g0
(g55
g2
Ntp3291
Rp3292
(dp3293
g15
I0
sbsg54
g0
(g55
g2
Ntp3294
Rp3295
(dp3296
g15
I1
sbsg90
g0
(g91
g2
Ntp3297
Rp3298
(dp3299
g15
I00
sbsg59
g0
(g45
g2
Ntp3300
Rp3301
(dp3302
g15
S'MTpost_Association'
p3303
sbsg60
g1766
sg95
g0
(g91
g2
Ntp3304
Rp3305
(dp3306
g15
I01
sbsg99
g0
(g100
g2
Ntp3307
Rp3308
(dp3309
g104
g3256
sg78
g0
(g79
g2
Ntp3310
Rp3311
(dp3312
g15
Finf
sbsg83
g0
(g55
g2
Ntp3313
Rp3314
(dp3315
g15
I0
sbsg167
g0
(g45
g2
Ntp3316
Rp3317
(dp3318
g15
g2735
sbsg90
g0
(g91
g2
Ntp3319
Rp3320
(dp3321
g15
I00
sbsbsg61
g0
(g11
g2
Ntp3322
Rp3323
(dp3324
g15
(dp3325
sbsg179
g0
(g180
g2
Ntp3326
Rp3327
(dp3328
g184
g0
(g17
g2
Ntp3329
Rp3330
(dp3331
g15
g2659
sbsbsg189
g0
(g11
g2
Ntp3332
Rp3333
(dp3334
g15
(dp3335
g0
(g17
g2
Ntp3336
Rp3337
(dp3338
g15
g2756
sbg0
(g198
g2
Ntp3339
Rp3340
(dp3341
g184
g3337
sbssbsg202
g0
(g100
g2
Ntp3342
Rp3343
(dp3344
g104
g3256
sg78
g0
(g79
g2
Ntp3345
Rp3346
(dp3347
g15
Finf
sbsg83
g0
(g55
g2
Ntp3348
Rp3349
(dp3350
g15
I0
sbsg167
g0
(g45
g2
Ntp3351
Rp3352
(dp3353
g15
g2772
sbsg90
g0
(g91
g2
Ntp3354
Rp3355
(dp3356
g15
I00
sbsbsg219
g0
(g11
g2
Ntp3357
Rp3358
(dp3359
g15
(dp3360
g0
(g45
g2
Ntp3361
Rp3362
(dp3363
g15
S'Association.to_min'
p3364
sbg0
(g228
g2
Ntp3365
Rp3366
(dp3367
g78
g0
(g55
g2
Ntp3368
Rp3369
(dp3370
g15
I1
sbsg83
g0
(g55
g2
Ntp3371
Rp3372
(dp3373
g15
I1
sbsg54
g0
(g55
g2
Ntp3374
Rp3375
(dp3376
g15
I0
sbsg90
g0
(g91
g2
Ntp3377
Rp3378
(dp3379
g15
I00
sbsg59
g3362
sg60
g3286
sg15
g3349
sg61
g0
(g11
g2
Ntp3380
Rp3381
(dp3382
g15
(dp3383
sbsg179
g458
sg219
g0
(g11
g2
Ntp3384
Rp3385
(dp3386
g15
(dp3387
sbsg263
g490
sg280
g0
(g11
g2
Ntp3388
Rp3389
(dp3390
g15
(dp3391
sbsbsg0
(g45
g2
Ntp3392
Rp3393
(dp3394
g15
S'Association.to_port'
p3395
sbg0
(g228
g2
Ntp3396
Rp3397
(dp3398
g78
g0
(g55
g2
Ntp3399
Rp3400
(dp3401
g15
I1
sbsg83
g0
(g55
g2
Ntp3402
Rp3403
(dp3404
g15
I1
sbsg54
g0
(g55
g2
Ntp3405
Rp3406
(dp3407
g15
I0
sbsg90
g0
(g91
g2
Ntp3408
Rp3409
(dp3410
g15
I00
sbsg59
g3393
sg60
g3286
sg15
g3352
sg61
g0
(g11
g2
Ntp3411
Rp3412
(dp3413
g15
(dp3414
sbsg179
g290
sg219
g0
(g11
g2
Ntp3415
Rp3416
(dp3417
g15
(dp3418
sbsg263
g324
sg280
g0
(g11
g2
Ntp3419
Rp3420
(dp3421
g15
(dp3422
sbsbsg0
(g45
g2
Ntp3423
Rp3424
(dp3425
g15
S'Association.from_port'
p3426
sbg0
(g228
g2
Ntp3427
Rp3428
(dp3429
g78
g0
(g55
g2
Ntp3430
Rp3431
(dp3432
g15
I1
sbsg83
g0
(g55
g2
Ntp3433
Rp3434
(dp3435
g15
I1
sbsg54
g0
(g55
g2
Ntp3436
Rp3437
(dp3438
g15
I0
sbsg90
g0
(g91
g2
Ntp3439
Rp3440
(dp3441
g15
I00
sbsg59
g3424
sg60
g3286
sg15
g3317
sg61
g0
(g11
g2
Ntp3442
Rp3443
(dp3444
g15
(dp3445
sbsg179
g416
sg219
g0
(g11
g2
Ntp3446
Rp3447
(dp3448
g15
(dp3449
sbsg263
g448
sg280
g0
(g11
g2
Ntp3450
Rp3451
(dp3452
g15
(dp3453
sbsbsg0
(g45
g2
Ntp3454
Rp3455
(dp3456
g15
S'Association.from_min'
p3457
sbg0
(g228
g2
Ntp3458
Rp3459
(dp3460
g78
g0
(g55
g2
Ntp3461
Rp3462
(dp3463
g15
I1
sbsg83
g0
(g55
g2
Ntp3464
Rp3465
(dp3466
g15
I1
sbsg54
g0
(g55
g2
Ntp3467
Rp3468
(dp3469
g15
I0
sbsg90
g0
(g91
g2
Ntp3470
Rp3471
(dp3472
g15
I00
sbsg59
g3455
sg60
g3286
sg15
g3314
sg61
g0
(g11
g2
Ntp3473
Rp3474
(dp3475
g15
(dp3476
sbsg179
g374
sg219
g0
(g11
g2
Ntp3477
Rp3478
(dp3479
g15
(dp3480
sbsg263
g406
sg280
g0
(g11
g2
Ntp3481
Rp3482
(dp3483
g15
(dp3484
sbsbsg0
(g45
g2
Ntp3485
Rp3486
(dp3487
g15
S'Class.name'
p3488
sbg0
(g228
g2
Ntp3489
Rp3490
(dp3491
g78
g0
(g55
g2
Ntp3492
Rp3493
(dp3494
g15
I1
sbsg83
g0
(g55
g2
Ntp3495
Rp3496
(dp3497
g15
I1
sbsg54
g0
(g55
g2
Ntp3498
Rp3499
(dp3500
g15
I0
sbsg90
g0
(g91
g2
Ntp3501
Rp3502
(dp3503
g15
I00
sbsg59
g3486
sg60
g3286
sg15
g3301
sg61
g0
(g11
g2
Ntp3504
Rp3505
(dp3506
g15
(dp3507
sbsg179
g658
sg219
g0
(g11
g2
Ntp3508
Rp3509
(dp3510
g15
(dp3511
sbsg263
g690
sg280
g0
(g11
g2
Ntp3512
Rp3513
(dp3514
g15
(dp3515
sbsbsg0
(g45
g2
Ntp3516
Rp3517
(dp3518
g15
S'Class.is_abstract'
p3519
sbg0
(g228
g2
Ntp3520
Rp3521
(dp3522
g78
g0
(g55
g2
Ntp3523
Rp3524
(dp3525
g15
I1
sbsg83
g0
(g55
g2
Ntp3526
Rp3527
(dp3528
g15
I1
sbsg54
g0
(g55
g2
Ntp3529
Rp3530
(dp3531
g15
I0
sbsg90
g0
(g91
g2
Ntp3532
Rp3533
(dp3534
g15
I00
sbsg59
g3517
sg60
g3286
sg15
g3305
sg61
g0
(g11
g2
Ntp3535
Rp3536
(dp3537
g15
(dp3538
sbsg179
g615
sg219
g0
(g11
g2
Ntp3539
Rp3540
(dp3541
g15
(dp3542
sbsg263
g648
sg280
g0
(g11
g2
Ntp3543
Rp3544
(dp3545
g15
(dp3546
sbsbsg0
(g45
g2
Ntp3547
Rp3548
(dp3549
g15
S'Association.to_max'
p3550
sbg0
(g228
g2
Ntp3551
Rp3552
(dp3553
g78
g0
(g55
g2
Ntp3554
Rp3555
(dp3556
g15
I1
sbsg83
g0
(g55
g2
Ntp3557
Rp3558
(dp3559
g15
I1
sbsg54
g0
(g55
g2
Ntp3560
Rp3561
(dp3562
g15
I0
sbsg90
g0
(g91
g2
Ntp3563
Rp3564
(dp3565
g15
I00
sbsg59
g3548
sg60
g3286
sg15
g3346
sg61
g0
(g11
g2
Ntp3566
Rp3567
(dp3568
g15
(dp3569
sbsg179
g334
sg219
g0
(g11
g2
Ntp3570
Rp3571
(dp3572
g15
(dp3573
sbsg263
g266
sg280
g0
(g11
g2
Ntp3574
Rp3575
(dp3576
g15
(dp3577
sbsbsg0
(g45
g2
Ntp3578
Rp3579
(dp3580
g15
S'Association.from_max'
p3581
sbg0
(g228
g2
Ntp3582
Rp3583
(dp3584
g78
g0
(g55
g2
Ntp3585
Rp3586
(dp3587
g15
I1
sbsg83
g0
(g55
g2
Ntp3588
Rp3589
(dp3590
g15
I1
sbsg54
g0
(g55
g2
Ntp3591
Rp3592
(dp3593
g15
I0
sbsg90
g0
(g91
g2
Ntp3594
Rp3595
(dp3596
g15
I00
sbsg59
g3579
sg60
g3286
sg15
g3311
sg61
g0
(g11
g2
Ntp3597
Rp3598
(dp3599
g15
(dp3600
sbsg179
g230
sg219
g0
(g11
g2
Ntp3601
Rp3602
(dp3603
g15
(dp3604
sbsg263
g266
sg280
g0
(g11
g2
Ntp3605
Rp3606
(dp3607
g15
(dp3608
sbsbssbsg495
g0
(g11
g2
Ntp3609
Rp3610
(dp3611
g15
(dp3612
sbsg280
g0
(g11
g2
Ntp3613
Rp3614
(dp3615
g15
(dp3616
g0
(g17
g2
Ntp3617
Rp3618
(dp3619
g15
S'protected.formalisms.Rule.post_i_assoc'
p3620
sbg0
(g508
g2
Ntp3621
Rp3622
(dp3623
g78
g0
(g79
g2
Ntp3624
Rp3625
(dp3626
g15
Finf
sbsg83
g0
(g55
g2
Ntp3627
Rp3628
(dp3629
g15
I0
sbsg54
g0
(g55
g2
Ntp3630
Rp3631
(dp3632
g15
I0
sbsg90
g0
(g91
g2
Ntp3633
Rp3634
(dp3635
g15
I00
sbsg59
g0
(g45
g2
Ntp3636
Rp3637
(dp3638
g15
S'post_i_assoc'
p3639
sbsg60
g1766
sg99
g0
(g100
g2
Ntp3640
Rp3641
(dp3642
g104
g3286
sg78
g0
(g79
g2
Ntp3643
Rp3644
(dp3645
g15
Finf
sbsg83
g0
(g55
g2
Ntp3646
Rp3647
(dp3648
g15
I0
sbsg167
g1060
sg90
g0
(g91
g2
Ntp3649
Rp3650
(dp3651
g15
I00
sbsbsg202
g0
(g100
g2
Ntp3652
Rp3653
(dp3654
g104
g3075
sg78
g0
(g79
g2
Ntp3655
Rp3656
(dp3657
g15
Finf
sbsg83
g0
(g55
g2
Ntp3658
Rp3659
(dp3660
g15
I0
sbsg167
g1089
sg90
g0
(g91
g2
Ntp3661
Rp3662
(dp3663
g15
I00
sbsbsg61
g0
(g11
g2
Ntp3664
Rp3665
(dp3666
g15
(dp3667
sbsg179
g0
(g180
g2
Ntp3668
Rp3669
(dp3670
g184
g0
(g17
g2
Ntp3671
Rp3672
(dp3673
g15
g2137
sbsbsg189
g0
(g11
g2
Ntp3674
Rp3675
(dp3676
g15
(dp3677
sbsg495
g0
(g11
g2
Ntp3678
Rp3679
(dp3680
g15
(dp3681
sbsg219
g0
(g11
g2
Ntp3682
Rp3683
(dp3684
g15
(dp3685
g0
(g45
g2
Ntp3686
Rp3687
(dp3688
g15
S'Inheritance.name'
p3689
sbg0
(g228
g2
Ntp3690
Rp3691
(dp3692
g78
g0
(g55
g2
Ntp3693
Rp3694
(dp3695
g15
I1
sbsg83
g0
(g55
g2
Ntp3696
Rp3697
(dp3698
g15
I1
sbsg54
g0
(g55
g2
Ntp3699
Rp3700
(dp3701
g15
I0
sbsg90
g0
(g91
g2
Ntp3702
Rp3703
(dp3704
g15
I00
sbsg59
g3687
sg60
g3622
sg15
g3637
sg61
g0
(g11
g2
Ntp3705
Rp3706
(dp3707
g15
(dp3708
sbsg179
g1102
sg219
g0
(g11
g2
Ntp3709
Rp3710
(dp3711
g15
(dp3712
sbsg263
g1134
sg280
g0
(g11
g2
Ntp3713
Rp3714
(dp3715
g15
(dp3716
sbsbssbsg280
g0
(g11
g2
Ntp3717
Rp3718
(dp3719
g15
(dp3720
sbsbssbsbsg0
(g17
g2
Ntp3721
Rp3722
(dp3723
g15
S'protected.formalisms.Rule.MTpost_Contents'
p3724
sbg0
(g74
g2
Ntp3725
Rp3726
(dp3727
g78
g0
(g79
g2
Ntp3728
Rp3729
(dp3730
g15
Finf
sbsg83
g0
(g55
g2
Ntp3731
Rp3732
(dp3733
g15
I0
sbsg54
g0
(g55
g2
Ntp3734
Rp3735
(dp3736
g15
I1
sbsg90
g0
(g91
g2
Ntp3737
Rp3738
(dp3739
g15
I00
sbsg59
g0
(g45
g2
Ntp3740
Rp3741
(dp3742
g15
S'MTpost_Contents'
p3743
sbsg60
g1766
sg95
g0
(g91
g2
Ntp3744
Rp3745
(dp3746
g15
I00
sbsg99
g0
(g100
g2
Ntp3747
Rp3748
(dp3749
g104
g0
(g105
g2
Ntp3750
Rp3751
(dp3752
g78
g0
(g79
g2
Ntp3753
Rp3754
(dp3755
g15
Finf
sbsg83
g0
(g55
g2
Ntp3756
Rp3757
(dp3758
g15
I0
sbsg54
g0
(g55
g2
Ntp3759
Rp3760
(dp3761
g15
I1
sbsg90
g0
(g91
g2
Ntp3762
Rp3763
(dp3764
g15
I00
sbsg59
g0
(g45
g2
Ntp3765
Rp3766
(dp3767
g15
S'MTpost_Pattern'
p3768
sbsg60
g1766
sg95
g0
(g91
g2
Ntp3769
Rp3770
(dp3771
g15
I01
sbsg61
g0
(g11
g2
Ntp3772
Rp3773
(dp3774
g15
(dp3775
g0
(g17
g2
Ntp3776
Rp3777
(dp3778
g15
S'protected.formalisms.Rule.rhs_i_pattern'
p3779
sbg0
(g508
g2
Ntp3780
Rp3781
(dp3782
g78
g0
(g79
g2
Ntp3783
Rp3784
(dp3785
g15
Finf
sbsg83
g0
(g55
g2
Ntp3786
Rp3787
(dp3788
g15
I0
sbsg54
g0
(g55
g2
Ntp3789
Rp3790
(dp3791
g15
I0
sbsg90
g0
(g91
g2
Ntp3792
Rp3793
(dp3794
g15
I00
sbsg59
g0
(g45
g2
Ntp3795
Rp3796
(dp3797
g15
S'rhs_i_pattern'
p3798
sbsg60
g1766
sg99
g0
(g100
g2
Ntp3799
Rp3800
(dp3801
g104
g0
(g105
g2
Ntp3802
Rp3803
(dp3804
g78
g0
(g79
g2
Ntp3805
Rp3806
(dp3807
g15
Finf
sbsg83
g0
(g55
g2
Ntp3808
Rp3809
(dp3810
g15
I0
sbsg54
g0
(g55
g2
Ntp3811
Rp3812
(dp3813
g15
I1
sbsg90
g0
(g91
g2
Ntp3814
Rp3815
(dp3816
g15
I00
sbsg59
g0
(g45
g2
Ntp3817
Rp3818
(dp3819
g15
S'RHS'
p3820
sbsg60
g1766
sg95
g0
(g91
g2
Ntp3821
Rp3822
(dp3823
g15
I00
sbsg61
g0
(g11
g2
Ntp3824
Rp3825
(dp3826
g15
(dp3827
sbsg179
g0
(g198
g2
Ntp3828
Rp3829
(dp3830
g184
g0
(g17
g2
Ntp3831
Rp3832
(dp3833
g15
g197
sbsbsg189
g0
(g11
g2
Ntp3834
Rp3835
(dp3836
g15
(dp3837
g0
(g17
g2
Ntp3838
Rp3839
(dp3840
g15
S'protected.formalisms.Rule.MTpost_Pattern'
p3841
sbg0
(g198
g2
Ntp3842
Rp3843
(dp3844
g184
g3839
sbssbsg495
g0
(g11
g2
Ntp3845
Rp3846
(dp3847
g15
(dp3848
sbsg219
g0
(g11
g2
Ntp3849
Rp3850
(dp3851
g15
(dp3852
g0
(g45
g2
Ntp3853
Rp3854
(dp3855
g15
S'Class.name'
p3856
sbg0
(g228
g2
Ntp3857
Rp3858
(dp3859
g78
g0
(g55
g2
Ntp3860
Rp3861
(dp3862
g15
I1
sbsg83
g0
(g55
g2
Ntp3863
Rp3864
(dp3865
g15
I1
sbsg54
g0
(g55
g2
Ntp3866
Rp3867
(dp3868
g15
I0
sbsg90
g0
(g91
g2
Ntp3869
Rp3870
(dp3871
g15
I00
sbsg59
g3854
sg60
g3803
sg15
g3818
sg61
g0
(g11
g2
Ntp3872
Rp3873
(dp3874
g15
(dp3875
sbsg179
g658
sg219
g0
(g11
g2
Ntp3876
Rp3877
(dp3878
g15
(dp3879
sbsg263
g690
sg280
g0
(g11
g2
Ntp3880
Rp3881
(dp3882
g15
(dp3883
sbsbsg0
(g45
g2
Ntp3884
Rp3885
(dp3886
g15
S'Class.is_abstract'
p3887
sbg0
(g228
g2
Ntp3888
Rp3889
(dp3890
g78
g0
(g55
g2
Ntp3891
Rp3892
(dp3893
g15
I1
sbsg83
g0
(g55
g2
Ntp3894
Rp3895
(dp3896
g15
I1
sbsg54
g0
(g55
g2
Ntp3897
Rp3898
(dp3899
g15
I0
sbsg90
g0
(g91
g2
Ntp3900
Rp3901
(dp3902
g15
I00
sbsg59
g3885
sg60
g3803
sg15
g3822
sg61
g0
(g11
g2
Ntp3903
Rp3904
(dp3905
g15
(dp3906
sbsg179
g615
sg219
g0
(g11
g2
Ntp3907
Rp3908
(dp3909
g15
(dp3910
sbsg263
g648
sg280
g0
(g11
g2
Ntp3911
Rp3912
(dp3913
g15
(dp3914
sbsbssbsg280
g0
(g11
g2
Ntp3915
Rp3916
(dp3917
g15
(dp3918
g0
(g17
g2
Ntp3919
Rp3920
(dp3921
g15
S'protected.formalisms.Rule.rhs_i_pattern'
p3922
sbg3781
ssbsbsg78
g0
(g79
g2
Ntp3923
Rp3924
(dp3925
g15
Finf
sbsg83
g0
(g55
g2
Ntp3926
Rp3927
(dp3928
g15
I0
sbsg167
g1060
sg90
g0
(g91
g2
Ntp3929
Rp3930
(dp3931
g15
I00
sbsbsg202
g0
(g100
g2
Ntp3932
Rp3933
(dp3934
g104
g3751
sg78
g0
(g79
g2
Ntp3935
Rp3936
(dp3937
g15
Finf
sbsg83
g0
(g55
g2
Ntp3938
Rp3939
(dp3940
g15
I0
sbsg167
g1089
sg90
g0
(g91
g2
Ntp3941
Rp3942
(dp3943
g15
I00
sbsbsg61
g0
(g11
g2
Ntp3944
Rp3945
(dp3946
g15
(dp3947
sbsg179
g0
(g180
g2
Ntp3948
Rp3949
(dp3950
g184
g0
(g17
g2
Ntp3951
Rp3952
(dp3953
g15
g2137
sbsbsg189
g0
(g11
g2
Ntp3954
Rp3955
(dp3956
g15
(dp3957
sbsg495
g0
(g11
g2
Ntp3958
Rp3959
(dp3960
g15
(dp3961
sbsg219
g0
(g11
g2
Ntp3962
Rp3963
(dp3964
g15
(dp3965
g0
(g45
g2
Ntp3966
Rp3967
(dp3968
g15
S'Inheritance.name'
p3969
sbg0
(g228
g2
Ntp3970
Rp3971
(dp3972
g78
g0
(g55
g2
Ntp3973
Rp3974
(dp3975
g15
I1
sbsg83
g0
(g55
g2
Ntp3976
Rp3977
(dp3978
g15
I1
sbsg54
g0
(g55
g2
Ntp3979
Rp3980
(dp3981
g15
I0
sbsg90
g0
(g91
g2
Ntp3982
Rp3983
(dp3984
g15
I00
sbsg59
g3967
sg60
g3781
sg15
g3796
sg61
g0
(g11
g2
Ntp3985
Rp3986
(dp3987
g15
(dp3988
sbsg179
g1102
sg219
g0
(g11
g2
Ntp3989
Rp3990
(dp3991
g15
(dp3992
sbsg263
g1134
sg280
g0
(g11
g2
Ntp3993
Rp3994
(dp3995
g15
(dp3996
sbsbssbsg280
g0
(g11
g2
Ntp3997
Rp3998
(dp3999
g15
(dp4000
sbsbssbsg179
g0
(g198
g2
Ntp4001
Rp4002
(dp4003
g184
g0
(g17
g2
Ntp4004
Rp4005
(dp4006
g15
g197
sbsbsg189
g0
(g11
g2
Ntp4007
Rp4008
(dp4009
g15
(dp4010
sbsg495
g0
(g11
g2
Ntp4011
Rp4012
(dp4013
g15
(dp4014
g0
(g17
g2
Ntp4015
Rp4016
(dp4017
g15
S'protected.formalisms.Rule.RHS'
p4018
sbg3803
ssbsg219
g0
(g11
g2
Ntp4019
Rp4020
(dp4021
g15
(dp4022
g0
(g45
g2
Ntp4023
Rp4024
(dp4025
g15
g2218
sbg0
(g228
g2
Ntp4026
Rp4027
(dp4028
g78
g0
(g55
g2
Ntp4029
Rp4030
(dp4031
g15
I1
sbsg83
g0
(g55
g2
Ntp4032
Rp4033
(dp4034
g15
I1
sbsg54
g0
(g55
g2
Ntp4035
Rp4036
(dp4037
g15
I1
sbsg90
g0
(g91
g2
Ntp4038
Rp4039
(dp4040
g15
I00
sbsg59
g4024
sg60
g3751
sg244
g0
(g45
g2
Ntp4041
Rp4042
(dp4043
g15
g307
sbsg61
g0
(g11
g2
Ntp4044
Rp4045
(dp4046
g15
(dp4047
g0
(g17
g2
Ntp4048
Rp4049
(dp4050
g15
S'protected.formalisms.Rule.MTpost_Pattern_a_pattern_name'
p4051
sbg0
(g753
g2
Ntp4052
Rp4053
(dp4054
g78
g0
(g79
g2
Ntp4055
Rp4056
(dp4057
g15
Finf
sbsg83
g0
(g55
g2
Ntp4058
Rp4059
(dp4060
g15
I0
sbsg54
g0
(g55
g2
Ntp4061
Rp4062
(dp4063
g15
I0
sbsg90
g0
(g91
g2
Ntp4064
Rp4065
(dp4066
g15
I00
sbsg59
g0
(g45
g2
Ntp4067
Rp4068
(dp4069
g15
S'MTpost_Pattern_a_pattern_name'
p4070
sbsg60
g1766
sg99
g0
(g100
g2
Ntp4071
Rp4072
(dp4073
g104
g3751
sg78
g0
(g79
g2
Ntp4074
Rp4075
(dp4076
g15
Finf
sbsg83
g0
(g55
g2
Ntp4077
Rp4078
(dp4079
g15
I0
sbsg167
g786
sg90
g0
(g91
g2
Ntp4080
Rp4081
(dp4082
g15
I00
sbsbsg202
g0
(g100
g2
Ntp4083
Rp4084
(dp4085
g104
g4027
sg78
g0
(g79
g2
Ntp4086
Rp4087
(dp4088
g15
Finf
sbsg83
g0
(g55
g2
Ntp4089
Rp4090
(dp4091
g15
I0
sbsg167
g994
sg90
g0
(g91
g2
Ntp4092
Rp4093
(dp4094
g15
I00
sbsbsg61
g0
(g11
g2
Ntp4095
Rp4096
(dp4097
g15
(dp4098
sbsg179
g0
(g180
g2
Ntp4099
Rp4100
(dp4101
g184
g0
(g17
g2
Ntp4102
Rp4103
(dp4104
g15
g1517
sbsbsg189
g0
(g11
g2
Ntp4105
Rp4106
(dp4107
g15
(dp4108
sbsg495
g0
(g11
g2
Ntp4109
Rp4110
(dp4111
g15
(dp4112
sbsg219
g0
(g11
g2
Ntp4113
Rp4114
(dp4115
g15
(dp4116
g0
(g45
g2
Ntp4117
Rp4118
(dp4119
g15
S'attributes.name'
p4120
sbg0
(g228
g2
Ntp4121
Rp4122
(dp4123
g78
g0
(g55
g2
Ntp4124
Rp4125
(dp4126
g15
I1
sbsg83
g0
(g55
g2
Ntp4127
Rp4128
(dp4129
g15
I1
sbsg54
g0
(g55
g2
Ntp4130
Rp4131
(dp4132
g15
I0
sbsg90
g0
(g91
g2
Ntp4133
Rp4134
(dp4135
g15
I00
sbsg59
g4118
sg60
g4053
sg15
g4068
sg61
g0
(g11
g2
Ntp4136
Rp4137
(dp4138
g15
(dp4139
sbsg179
g1008
sg219
g0
(g11
g2
Ntp4140
Rp4141
(dp4142
g15
(dp4143
sbsg263
g1040
sg280
g0
(g11
g2
Ntp4144
Rp4145
(dp4146
g15
(dp4147
sbsbssbsg280
g0
(g11
g2
Ntp4148
Rp4149
(dp4150
g15
(dp4151
sbsbssbsg179
g0
(g198
g2
Ntp4152
Rp4153
(dp4154
g184
g0
(g17
g2
Ntp4155
Rp4156
(dp4157
g15
g1326
sbsbsg219
g0
(g11
g2
Ntp4158
Rp4159
(dp4160
g15
(dp4161
sbsg263
g2356
sg280
g0
(g11
g2
Ntp4162
Rp4163
(dp4164
g15
(dp4165
sbsbsg0
(g45
g2
Ntp4166
Rp4167
(dp4168
g15
S'Class.name'
p4169
sbg0
(g228
g2
Ntp4170
Rp4171
(dp4172
g78
g0
(g55
g2
Ntp4173
Rp4174
(dp4175
g15
I1
sbsg83
g0
(g55
g2
Ntp4176
Rp4177
(dp4178
g15
I1
sbsg54
g0
(g55
g2
Ntp4179
Rp4180
(dp4181
g15
I0
sbsg90
g0
(g91
g2
Ntp4182
Rp4183
(dp4184
g15
I00
sbsg59
g4167
sg60
g3751
sg15
g3766
sg61
g0
(g11
g2
Ntp4185
Rp4186
(dp4187
g15
(dp4188
sbsg179
g658
sg219
g0
(g11
g2
Ntp4189
Rp4190
(dp4191
g15
(dp4192
sbsg263
g690
sg280
g0
(g11
g2
Ntp4193
Rp4194
(dp4195
g15
(dp4196
sbsbsg0
(g45
g2
Ntp4197
Rp4198
(dp4199
g15
S'Class.is_abstract'
p4200
sbg0
(g228
g2
Ntp4201
Rp4202
(dp4203
g78
g0
(g55
g2
Ntp4204
Rp4205
(dp4206
g15
I1
sbsg83
g0
(g55
g2
Ntp4207
Rp4208
(dp4209
g15
I1
sbsg54
g0
(g55
g2
Ntp4210
Rp4211
(dp4212
g15
I0
sbsg90
g0
(g91
g2
Ntp4213
Rp4214
(dp4215
g15
I00
sbsg59
g4198
sg60
g3751
sg15
g3770
sg61
g0
(g11
g2
Ntp4216
Rp4217
(dp4218
g15
(dp4219
sbsg179
g615
sg219
g0
(g11
g2
Ntp4220
Rp4221
(dp4222
g15
(dp4223
sbsg263
g648
sg280
g0
(g11
g2
Ntp4224
Rp4225
(dp4226
g15
(dp4227
sbsbsg0
(g45
g2
Ntp4228
Rp4229
(dp4230
g15
S'Class.id_field'
p4231
sbg0
(g228
g2
Ntp4232
Rp4233
(dp4234
g78
g0
(g55
g2
Ntp4235
Rp4236
(dp4237
g15
I1
sbsg83
g0
(g55
g2
Ntp4238
Rp4239
(dp4240
g15
I1
sbsg54
g0
(g55
g2
Ntp4241
Rp4242
(dp4243
g15
I0
sbsg90
g0
(g91
g2
Ntp4244
Rp4245
(dp4246
g15
I00
sbsg59
g4229
sg60
g3751
sg15
g0
(g45
g2
Ntp4247
Rp4248
(dp4249
g15
S'MTpost_Pattern.pattern_name'
p4250
sbsg61
g0
(g11
g2
Ntp4251
Rp4252
(dp4253
g15
(dp4254
sbsg179
g700
sg219
g0
(g11
g2
Ntp4255
Rp4256
(dp4257
g15
(dp4258
sbsg263
g732
sg280
g0
(g11
g2
Ntp4259
Rp4260
(dp4261
g15
(dp4262
sbsbsg0
(g45
g2
Ntp4263
Rp4264
(dp4265
g15
S'MT_action'
p4266
sbg0
(g228
g2
Ntp4267
Rp4268
(dp4269
g78
g0
(g55
g2
Ntp4270
Rp4271
(dp4272
g15
I1
sbsg83
g0
(g55
g2
Ntp4273
Rp4274
(dp4275
g15
I1
sbsg54
g0
(g55
g2
Ntp4276
Rp4277
(dp4278
g15
I1
sbsg90
g0
(g91
g2
Ntp4279
Rp4280
(dp4281
g15
I00
sbsg59
g4264
sg60
g3751
sg244
g0
(g45
g2
Ntp4282
Rp4283
(dp4284
g15
S'pass'
p4285
sbsg61
g0
(g11
g2
Ntp4286
Rp4287
(dp4288
g15
(dp4289
g0
(g17
g2
Ntp4290
Rp4291
(dp4292
g15
S'protected.formalisms.Rule.MTpost_Pattern_a_MT_action'
p4293
sbg0
(g753
g2
Ntp4294
Rp4295
(dp4296
g78
g0
(g79
g2
Ntp4297
Rp4298
(dp4299
g15
Finf
sbsg83
g0
(g55
g2
Ntp4300
Rp4301
(dp4302
g15
I0
sbsg54
g0
(g55
g2
Ntp4303
Rp4304
(dp4305
g15
I0
sbsg90
g0
(g91
g2
Ntp4306
Rp4307
(dp4308
g15
I00
sbsg59
g0
(g45
g2
Ntp4309
Rp4310
(dp4311
g15
S'MTpost_Pattern_a_MT_action'
p4312
sbsg60
g1766
sg99
g0
(g100
g2
Ntp4313
Rp4314
(dp4315
g104
g3751
sg78
g0
(g79
g2
Ntp4316
Rp4317
(dp4318
g15
Finf
sbsg83
g0
(g55
g2
Ntp4319
Rp4320
(dp4321
g15
I0
sbsg167
g786
sg90
g0
(g91
g2
Ntp4322
Rp4323
(dp4324
g15
I00
sbsbsg202
g0
(g100
g2
Ntp4325
Rp4326
(dp4327
g104
g4268
sg78
g0
(g79
g2
Ntp4328
Rp4329
(dp4330
g15
Finf
sbsg83
g0
(g55
g2
Ntp4331
Rp4332
(dp4333
g15
I0
sbsg167
g994
sg90
g0
(g91
g2
Ntp4334
Rp4335
(dp4336
g15
I00
sbsbsg61
g0
(g11
g2
Ntp4337
Rp4338
(dp4339
g15
(dp4340
sbsg179
g0
(g180
g2
Ntp4341
Rp4342
(dp4343
g184
g0
(g17
g2
Ntp4344
Rp4345
(dp4346
g15
g1517
sbsbsg189
g0
(g11
g2
Ntp4347
Rp4348
(dp4349
g15
(dp4350
sbsg495
g0
(g11
g2
Ntp4351
Rp4352
(dp4353
g15
(dp4354
sbsg219
g0
(g11
g2
Ntp4355
Rp4356
(dp4357
g15
(dp4358
g0
(g45
g2
Ntp4359
Rp4360
(dp4361
g15
S'attributes.name'
p4362
sbg0
(g228
g2
Ntp4363
Rp4364
(dp4365
g78
g0
(g55
g2
Ntp4366
Rp4367
(dp4368
g15
I1
sbsg83
g0
(g55
g2
Ntp4369
Rp4370
(dp4371
g15
I1
sbsg54
g0
(g55
g2
Ntp4372
Rp4373
(dp4374
g15
I0
sbsg90
g0
(g91
g2
Ntp4375
Rp4376
(dp4377
g15
I00
sbsg59
g4360
sg60
g4295
sg15
g4310
sg61
g0
(g11
g2
Ntp4378
Rp4379
(dp4380
g15
(dp4381
sbsg179
g1008
sg219
g0
(g11
g2
Ntp4382
Rp4383
(dp4384
g15
(dp4385
sbsg263
g1040
sg280
g0
(g11
g2
Ntp4386
Rp4387
(dp4388
g15
(dp4389
sbsbssbsg280
g0
(g11
g2
Ntp4390
Rp4391
(dp4392
g15
(dp4393
sbsbssbsg179
g0
(g198
g2
Ntp4394
Rp4395
(dp4396
g184
g0
(g17
g2
Ntp4397
Rp4398
(dp4399
g15
g1326
sbsbsg219
g0
(g11
g2
Ntp4400
Rp4401
(dp4402
g15
(dp4403
sbsg263
g2356
sg280
g0
(g11
g2
Ntp4404
Rp4405
(dp4406
g15
(dp4407
sbsbssbsg280
g0
(g11
g2
Ntp4408
Rp4409
(dp4410
g15
(dp4411
g0
(g17
g2
Ntp4412
Rp4413
(dp4414
g15
S'protected.formalisms.Rule.MTpost_Pattern_a_MT_action'
p4415
sbg4295
sg0
(g17
g2
Ntp4416
Rp4417
(dp4418
g15
S'protected.formalisms.Rule.MTpost_Contents'
p4419
sbg3726
sg0
(g17
g2
Ntp4420
Rp4421
(dp4422
g15
S'protected.formalisms.Rule.MTpost_Pattern_a_pattern_name'
p4423
sbg4053
ssbsbsg78
g0
(g79
g2
Ntp4424
Rp4425
(dp4426
g15
Finf
sbsg83
g0
(g55
g2
Ntp4427
Rp4428
(dp4429
g15
I0
sbsg167
g0
(g45
g2
Ntp4430
Rp4431
(dp4432
g15
g2645
sbsg90
g0
(g91
g2
Ntp4433
Rp4434
(dp4435
g15
I00
sbsbsg61
g0
(g11
g2
Ntp4436
Rp4437
(dp4438
g15
(dp4439
sbsg179
g0
(g180
g2
Ntp4440
Rp4441
(dp4442
g184
g0
(g17
g2
Ntp4443
Rp4444
(dp4445
g15
g2659
sbsbsg189
g0
(g11
g2
Ntp4446
Rp4447
(dp4448
g15
(dp4449
sbsg202
g0
(g100
g2
Ntp4450
Rp4451
(dp4452
g104
g3256
sg78
g0
(g79
g2
Ntp4453
Rp4454
(dp4455
g15
Finf
sbsg83
g0
(g55
g2
Ntp4456
Rp4457
(dp4458
g15
I0
sbsg167
g0
(g45
g2
Ntp4459
Rp4460
(dp4461
g15
g2772
sbsg90
g0
(g91
g2
Ntp4462
Rp4463
(dp4464
g15
I00
sbsbsg219
g0
(g11
g2
Ntp4465
Rp4466
(dp4467
g15
(dp4468
g0
(g45
g2
Ntp4469
Rp4470
(dp4471
g15
S'Association.to_min'
p4472
sbg0
(g228
g2
Ntp4473
Rp4474
(dp4475
g78
g0
(g55
g2
Ntp4476
Rp4477
(dp4478
g15
I1
sbsg83
g0
(g55
g2
Ntp4479
Rp4480
(dp4481
g15
I1
sbsg54
g0
(g55
g2
Ntp4482
Rp4483
(dp4484
g15
I0
sbsg90
g0
(g91
g2
Ntp4485
Rp4486
(dp4487
g15
I00
sbsg59
g4470
sg60
g3726
sg15
g4457
sg61
g0
(g11
g2
Ntp4488
Rp4489
(dp4490
g15
(dp4491
sbsg179
g458
sg219
g0
(g11
g2
Ntp4492
Rp4493
(dp4494
g15
(dp4495
sbsg263
g490
sg280
g0
(g11
g2
Ntp4496
Rp4497
(dp4498
g15
(dp4499
sbsbsg0
(g45
g2
Ntp4500
Rp4501
(dp4502
g15
S'Association.to_port'
p4503
sbg0
(g228
g2
Ntp4504
Rp4505
(dp4506
g78
g0
(g55
g2
Ntp4507
Rp4508
(dp4509
g15
I1
sbsg83
g0
(g55
g2
Ntp4510
Rp4511
(dp4512
g15
I1
sbsg54
g0
(g55
g2
Ntp4513
Rp4514
(dp4515
g15
I0
sbsg90
g0
(g91
g2
Ntp4516
Rp4517
(dp4518
g15
I00
sbsg59
g4501
sg60
g3726
sg15
g4460
sg61
g0
(g11
g2
Ntp4519
Rp4520
(dp4521
g15
(dp4522
sbsg179
g290
sg219
g0
(g11
g2
Ntp4523
Rp4524
(dp4525
g15
(dp4526
sbsg263
g324
sg280
g0
(g11
g2
Ntp4527
Rp4528
(dp4529
g15
(dp4530
sbsbsg0
(g45
g2
Ntp4531
Rp4532
(dp4533
g15
S'Association.from_port'
p4534
sbg0
(g228
g2
Ntp4535
Rp4536
(dp4537
g78
g0
(g55
g2
Ntp4538
Rp4539
(dp4540
g15
I1
sbsg83
g0
(g55
g2
Ntp4541
Rp4542
(dp4543
g15
I1
sbsg54
g0
(g55
g2
Ntp4544
Rp4545
(dp4546
g15
I0
sbsg90
g0
(g91
g2
Ntp4547
Rp4548
(dp4549
g15
I00
sbsg59
g4532
sg60
g3726
sg15
g4431
sg61
g0
(g11
g2
Ntp4550
Rp4551
(dp4552
g15
(dp4553
sbsg179
g416
sg219
g0
(g11
g2
Ntp4554
Rp4555
(dp4556
g15
(dp4557
sbsg263
g448
sg280
g0
(g11
g2
Ntp4558
Rp4559
(dp4560
g15
(dp4561
sbsbsg0
(g45
g2
Ntp4562
Rp4563
(dp4564
g15
S'Association.from_min'
p4565
sbg0
(g228
g2
Ntp4566
Rp4567
(dp4568
g78
g0
(g55
g2
Ntp4569
Rp4570
(dp4571
g15
I1
sbsg83
g0
(g55
g2
Ntp4572
Rp4573
(dp4574
g15
I1
sbsg54
g0
(g55
g2
Ntp4575
Rp4576
(dp4577
g15
I0
sbsg90
g0
(g91
g2
Ntp4578
Rp4579
(dp4580
g15
I00
sbsg59
g4563
sg60
g3726
sg15
g4428
sg61
g0
(g11
g2
Ntp4581
Rp4582
(dp4583
g15
(dp4584
sbsg179
g374
sg219
g0
(g11
g2
Ntp4585
Rp4586
(dp4587
g15
(dp4588
sbsg263
g406
sg280
g0
(g11
g2
Ntp4589
Rp4590
(dp4591
g15
(dp4592
sbsbsg0
(g45
g2
Ntp4593
Rp4594
(dp4595
g15
S'Class.id_field'
p4596
sbg0
(g228
g2
Ntp4597
Rp4598
(dp4599
g78
g0
(g55
g2
Ntp4600
Rp4601
(dp4602
g15
I1
sbsg83
g0
(g55
g2
Ntp4603
Rp4604
(dp4605
g15
I1
sbsg54
g0
(g55
g2
Ntp4606
Rp4607
(dp4608
g15
I0
sbsg90
g0
(g91
g2
Ntp4609
Rp4610
(dp4611
g15
I00
sbsg59
g4594
sg60
g3726
sg15
g0
(g45
g2
Ntp4612
Rp4613
(dp4614
g15
S'MTpost_Contents.id'
p4615
sbsg61
g0
(g11
g2
Ntp4616
Rp4617
(dp4618
g15
(dp4619
sbsg179
g700
sg219
g0
(g11
g2
Ntp4620
Rp4621
(dp4622
g15
(dp4623
sbsg263
g732
sg280
g0
(g11
g2
Ntp4624
Rp4625
(dp4626
g15
(dp4627
sbsbsg0
(g45
g2
Ntp4628
Rp4629
(dp4630
g15
S'Class.name'
p4631
sbg0
(g228
g2
Ntp4632
Rp4633
(dp4634
g78
g0
(g55
g2
Ntp4635
Rp4636
(dp4637
g15
I1
sbsg83
g0
(g55
g2
Ntp4638
Rp4639
(dp4640
g15
I1
sbsg54
g0
(g55
g2
Ntp4641
Rp4642
(dp4643
g15
I0
sbsg90
g0
(g91
g2
Ntp4644
Rp4645
(dp4646
g15
I00
sbsg59
g4629
sg60
g3726
sg15
g3741
sg61
g0
(g11
g2
Ntp4647
Rp4648
(dp4649
g15
(dp4650
sbsg179
g658
sg219
g0
(g11
g2
Ntp4651
Rp4652
(dp4653
g15
(dp4654
sbsg263
g690
sg280
g0
(g11
g2
Ntp4655
Rp4656
(dp4657
g15
(dp4658
sbsbsg0
(g45
g2
Ntp4659
Rp4660
(dp4661
g15
S'Class.is_abstract'
p4662
sbg0
(g228
g2
Ntp4663
Rp4664
(dp4665
g78
g0
(g55
g2
Ntp4666
Rp4667
(dp4668
g15
I1
sbsg83
g0
(g55
g2
Ntp4669
Rp4670
(dp4671
g15
I1
sbsg54
g0
(g55
g2
Ntp4672
Rp4673
(dp4674
g15
I0
sbsg90
g0
(g91
g2
Ntp4675
Rp4676
(dp4677
g15
I00
sbsg59
g4660
sg60
g3726
sg15
g3745
sg61
g0
(g11
g2
Ntp4678
Rp4679
(dp4680
g15
(dp4681
sbsg179
g615
sg219
g0
(g11
g2
Ntp4682
Rp4683
(dp4684
g15
(dp4685
sbsg263
g648
sg280
g0
(g11
g2
Ntp4686
Rp4687
(dp4688
g15
(dp4689
sbsbsg0
(g45
g2
Ntp4690
Rp4691
(dp4692
g15
S'Association.to_max'
p4693
sbg0
(g228
g2
Ntp4694
Rp4695
(dp4696
g78
g0
(g55
g2
Ntp4697
Rp4698
(dp4699
g15
I1
sbsg83
g0
(g55
g2
Ntp4700
Rp4701
(dp4702
g15
I1
sbsg54
g0
(g55
g2
Ntp4703
Rp4704
(dp4705
g15
I0
sbsg90
g0
(g91
g2
Ntp4706
Rp4707
(dp4708
g15
I00
sbsg59
g4691
sg60
g3726
sg15
g4454
sg61
g0
(g11
g2
Ntp4709
Rp4710
(dp4711
g15
(dp4712
sbsg179
g334
sg219
g0
(g11
g2
Ntp4713
Rp4714
(dp4715
g15
(dp4716
sbsg263
g266
sg280
g0
(g11
g2
Ntp4717
Rp4718
(dp4719
g15
(dp4720
sbsbsg0
(g45
g2
Ntp4721
Rp4722
(dp4723
g15
g1293
sbg0
(g228
g2
Ntp4724
Rp4725
(dp4726
g78
g0
(g55
g2
Ntp4727
Rp4728
(dp4729
g15
I1
sbsg83
g0
(g55
g2
Ntp4730
Rp4731
(dp4732
g15
I1
sbsg54
g0
(g55
g2
Ntp4733
Rp4734
(dp4735
g15
I1
sbsg90
g0
(g91
g2
Ntp4736
Rp4737
(dp4738
g15
I00
sbsg59
g4722
sg60
g3726
sg244
g0
(g45
g2
Ntp4739
Rp4740
(dp4741
g15
g307
sbsg61
g0
(g11
g2
Ntp4742
Rp4743
(dp4744
g15
(dp4745
g0
(g17
g2
Ntp4746
Rp4747
(dp4748
g15
S'protected.formalisms.Rule.MTpost_Contents_a_id'
p4749
sbg0
(g753
g2
Ntp4750
Rp4751
(dp4752
g78
g0
(g79
g2
Ntp4753
Rp4754
(dp4755
g15
Finf
sbsg83
g0
(g55
g2
Ntp4756
Rp4757
(dp4758
g15
I0
sbsg54
g0
(g55
g2
Ntp4759
Rp4760
(dp4761
g15
I0
sbsg90
g0
(g91
g2
Ntp4762
Rp4763
(dp4764
g15
I00
sbsg59
g0
(g45
g2
Ntp4765
Rp4766
(dp4767
g15
S'MTpost_Contents_a_id'
p4768
sbsg60
g1766
sg99
g0
(g100
g2
Ntp4769
Rp4770
(dp4771
g104
g3726
sg78
g0
(g79
g2
Ntp4772
Rp4773
(dp4774
g15
Finf
sbsg83
g0
(g55
g2
Ntp4775
Rp4776
(dp4777
g15
I0
sbsg167
g786
sg90
g0
(g91
g2
Ntp4778
Rp4779
(dp4780
g15
I00
sbsbsg202
g0
(g100
g2
Ntp4781
Rp4782
(dp4783
g104
g4725
sg78
g0
(g79
g2
Ntp4784
Rp4785
(dp4786
g15
Finf
sbsg83
g0
(g55
g2
Ntp4787
Rp4788
(dp4789
g15
I0
sbsg167
g994
sg90
g0
(g91
g2
Ntp4790
Rp4791
(dp4792
g15
I00
sbsbsg61
g0
(g11
g2
Ntp4793
Rp4794
(dp4795
g15
(dp4796
sbsg179
g0
(g180
g2
Ntp4797
Rp4798
(dp4799
g184
g0
(g17
g2
Ntp4800
Rp4801
(dp4802
g15
g1517
sbsbsg189
g0
(g11
g2
Ntp4803
Rp4804
(dp4805
g15
(dp4806
sbsg495
g0
(g11
g2
Ntp4807
Rp4808
(dp4809
g15
(dp4810
sbsg219
g0
(g11
g2
Ntp4811
Rp4812
(dp4813
g15
(dp4814
g0
(g45
g2
Ntp4815
Rp4816
(dp4817
g15
S'attributes.name'
p4818
sbg0
(g228
g2
Ntp4819
Rp4820
(dp4821
g78
g0
(g55
g2
Ntp4822
Rp4823
(dp4824
g15
I1
sbsg83
g0
(g55
g2
Ntp4825
Rp4826
(dp4827
g15
I1
sbsg54
g0
(g55
g2
Ntp4828
Rp4829
(dp4830
g15
I0
sbsg90
g0
(g91
g2
Ntp4831
Rp4832
(dp4833
g15
I00
sbsg59
g4816
sg60
g4751
sg15
g4766
sg61
g0
(g11
g2
Ntp4834
Rp4835
(dp4836
g15
(dp4837
sbsg179
g1008
sg219
g0
(g11
g2
Ntp4838
Rp4839
(dp4840
g15
(dp4841
sbsg263
g1040
sg280
g0
(g11
g2
Ntp4842
Rp4843
(dp4844
g15
(dp4845
sbsbssbsg280
g0
(g11
g2
Ntp4846
Rp4847
(dp4848
g15
(dp4849
sbsbssbsg179
g0
(g198
g2
Ntp4850
Rp4851
(dp4852
g184
g0
(g17
g2
Ntp4853
Rp4854
(dp4855
g15
g1326
sbsbsg219
g0
(g11
g2
Ntp4856
Rp4857
(dp4858
g15
(dp4859
sbsg263
g2356
sg280
g0
(g11
g2
Ntp4860
Rp4861
(dp4862
g15
(dp4863
sbsbsg0
(g45
g2
Ntp4864
Rp4865
(dp4866
g15
S'Association.from_max'
p4867
sbg0
(g228
g2
Ntp4868
Rp4869
(dp4870
g78
g0
(g55
g2
Ntp4871
Rp4872
(dp4873
g15
I1
sbsg83
g0
(g55
g2
Ntp4874
Rp4875
(dp4876
g15
I1
sbsg54
g0
(g55
g2
Ntp4877
Rp4878
(dp4879
g15
I0
sbsg90
g0
(g91
g2
Ntp4880
Rp4881
(dp4882
g15
I00
sbsg59
g4865
sg60
g3726
sg15
g4425
sg61
g0
(g11
g2
Ntp4883
Rp4884
(dp4885
g15
(dp4886
sbsg179
g230
sg219
g0
(g11
g2
Ntp4887
Rp4888
(dp4889
g15
(dp4890
sbsg263
g266
sg280
g0
(g11
g2
Ntp4891
Rp4892
(dp4893
g15
(dp4894
sbsbssbsg495
g0
(g11
g2
Ntp4895
Rp4896
(dp4897
g15
(dp4898
sbsg280
g0
(g11
g2
Ntp4899
Rp4900
(dp4901
g15
(dp4902
g0
(g17
g2
Ntp4903
Rp4904
(dp4905
g15
S'protected.formalisms.Rule.MTpost_Contents_a_id'
p4906
sbg4751
ssbsbssbsg179
g0
(g198
g2
Ntp4907
Rp4908
(dp4909
g184
g0
(g17
g2
Ntp4910
Rp4911
(dp4912
g15
g197
sbsbsg189
g0
(g11
g2
Ntp4913
Rp4914
(dp4915
g15
(dp4916
g0
(g17
g2
Ntp4917
Rp4918
(dp4919
g15
S'protected.formalisms.Rule.MT_Element'
p4920
sbg0
(g198
g2
Ntp4921
Rp4922
(dp4923
g184
g4918
sbssbsg495
g0
(g11
g2
Ntp4924
Rp4925
(dp4926
g15
(dp4927
sbsg219
g0
(g11
g2
Ntp4928
Rp4929
(dp4930
g15
(dp4931
g0
(g45
g2
Ntp4932
Rp4933
(dp4934
g15
S'Class.name'
p4935
sbg0
(g228
g2
Ntp4936
Rp4937
(dp4938
g78
g0
(g55
g2
Ntp4939
Rp4940
(dp4941
g15
I1
sbsg83
g0
(g55
g2
Ntp4942
Rp4943
(dp4944
g15
I1
sbsg54
g0
(g55
g2
Ntp4945
Rp4946
(dp4947
g15
I0
sbsg90
g0
(g91
g2
Ntp4948
Rp4949
(dp4950
g15
I00
sbsg59
g4933
sg60
g3256
sg15
g3271
sg61
g0
(g11
g2
Ntp4951
Rp4952
(dp4953
g15
(dp4954
sbsg179
g658
sg219
g0
(g11
g2
Ntp4955
Rp4956
(dp4957
g15
(dp4958
sbsg263
g690
sg280
g0
(g11
g2
Ntp4959
Rp4960
(dp4961
g15
(dp4962
sbsbsg0
(g45
g2
Ntp4963
Rp4964
(dp4965
g15
S'Class.is_abstract'
p4966
sbg0
(g228
g2
Ntp4967
Rp4968
(dp4969
g78
g0
(g55
g2
Ntp4970
Rp4971
(dp4972
g15
I1
sbsg83
g0
(g55
g2
Ntp4973
Rp4974
(dp4975
g15
I1
sbsg54
g0
(g55
g2
Ntp4976
Rp4977
(dp4978
g15
I0
sbsg90
g0
(g91
g2
Ntp4979
Rp4980
(dp4981
g15
I00
sbsg59
g4964
sg60
g3256
sg15
g3275
sg61
g0
(g11
g2
Ntp4982
Rp4983
(dp4984
g15
(dp4985
sbsg179
g615
sg219
g0
(g11
g2
Ntp4986
Rp4987
(dp4988
g15
(dp4989
sbsg263
g648
sg280
g0
(g11
g2
Ntp4990
Rp4991
(dp4992
g15
(dp4993
sbsbssbsg280
g0
(g11
g2
Ntp4994
Rp4995
(dp4996
g15
(dp4997
g0
(g17
g2
Ntp4998
Rp4999
(dp5000
g15
S'protected.formalisms.Rule.post_i_el'
p5001
sbg3234
sg0
(g17
g2
Ntp5002
Rp5003
(dp5004
g15
S'protected.formalisms.Rule.MTpost_Association'
p5005
sbg3286
ssbsbsg78
g0
(g79
g2
Ntp5006
Rp5007
(dp5008
g15
Finf
sbsg83
g0
(g55
g2
Ntp5009
Rp5010
(dp5011
g15
I0
sbsg167
g1060
sg90
g0
(g91
g2
Ntp5012
Rp5013
(dp5014
g15
I00
sbsbsg202
g0
(g100
g2
Ntp5015
Rp5016
(dp5017
g104
g3100
sg78
g0
(g79
g2
Ntp5018
Rp5019
(dp5020
g15
Finf
sbsg83
g0
(g55
g2
Ntp5021
Rp5022
(dp5023
g15
I0
sbsg167
g1089
sg90
g0
(g91
g2
Ntp5024
Rp5025
(dp5026
g15
I00
sbsbsg61
g0
(g11
g2
Ntp5027
Rp5028
(dp5029
g15
(dp5030
sbsg179
g0
(g180
g2
Ntp5031
Rp5032
(dp5033
g184
g0
(g17
g2
Ntp5034
Rp5035
(dp5036
g15
g2137
sbsbsg189
g0
(g11
g2
Ntp5037
Rp5038
(dp5039
g15
(dp5040
sbsg495
g0
(g11
g2
Ntp5041
Rp5042
(dp5043
g15
(dp5044
sbsg219
g0
(g11
g2
Ntp5045
Rp5046
(dp5047
g15
(dp5048
g0
(g45
g2
Ntp5049
Rp5050
(dp5051
g15
S'Inheritance.name'
p5052
sbg0
(g228
g2
Ntp5053
Rp5054
(dp5055
g78
g0
(g55
g2
Ntp5056
Rp5057
(dp5058
g15
I1
sbsg83
g0
(g55
g2
Ntp5059
Rp5060
(dp5061
g15
I1
sbsg54
g0
(g55
g2
Ntp5062
Rp5063
(dp5064
g15
I0
sbsg90
g0
(g91
g2
Ntp5065
Rp5066
(dp5067
g15
I00
sbsg59
g5050
sg60
g3234
sg15
g3249
sg61
g0
(g11
g2
Ntp5068
Rp5069
(dp5070
g15
(dp5071
sbsg179
g1102
sg219
g0
(g11
g2
Ntp5072
Rp5073
(dp5074
g15
(dp5075
sbsg263
g1134
sg280
g0
(g11
g2
Ntp5076
Rp5077
(dp5078
g15
(dp5079
sbsbssbsg280
g0
(g11
g2
Ntp5080
Rp5081
(dp5082
g15
(dp5083
sbsbsg0
(g17
g2
Ntp5084
Rp5085
(dp5086
g15
S'protected.formalisms.Rule.MT_Association'
p5087
sbg3075
sg0
(g17
g2
Ntp5088
Rp5089
(dp5090
g15
S'protected.formalisms.Rule.assoc_i_el'
p5091
sbg0
(g508
g2
Ntp5092
Rp5093
(dp5094
g78
g0
(g79
g2
Ntp5095
Rp5096
(dp5097
g15
Finf
sbsg83
g0
(g55
g2
Ntp5098
Rp5099
(dp5100
g15
I0
sbsg54
g0
(g55
g2
Ntp5101
Rp5102
(dp5103
g15
I0
sbsg90
g0
(g91
g2
Ntp5104
Rp5105
(dp5106
g15
I00
sbsg59
g0
(g45
g2
Ntp5107
Rp5108
(dp5109
g15
S'assoc_i_el'
p5110
sbsg60
g1766
sg99
g0
(g100
g2
Ntp5111
Rp5112
(dp5113
g104
g3075
sg78
g0
(g79
g2
Ntp5114
Rp5115
(dp5116
g15
Finf
sbsg83
g0
(g55
g2
Ntp5117
Rp5118
(dp5119
g15
I0
sbsg167
g1060
sg90
g0
(g91
g2
Ntp5120
Rp5121
(dp5122
g15
I00
sbsbsg202
g0
(g100
g2
Ntp5123
Rp5124
(dp5125
g104
g3100
sg78
g0
(g79
g2
Ntp5126
Rp5127
(dp5128
g15
Finf
sbsg83
g0
(g55
g2
Ntp5129
Rp5130
(dp5131
g15
I0
sbsg167
g1089
sg90
g0
(g91
g2
Ntp5132
Rp5133
(dp5134
g15
I00
sbsbsg61
g0
(g11
g2
Ntp5135
Rp5136
(dp5137
g15
(dp5138
sbsg179
g0
(g180
g2
Ntp5139
Rp5140
(dp5141
g184
g0
(g17
g2
Ntp5142
Rp5143
(dp5144
g15
g2137
sbsbsg189
g0
(g11
g2
Ntp5145
Rp5146
(dp5147
g15
(dp5148
sbsg495
g0
(g11
g2
Ntp5149
Rp5150
(dp5151
g15
(dp5152
sbsg219
g0
(g11
g2
Ntp5153
Rp5154
(dp5155
g15
(dp5156
g0
(g45
g2
Ntp5157
Rp5158
(dp5159
g15
S'Inheritance.name'
p5160
sbg0
(g228
g2
Ntp5161
Rp5162
(dp5163
g78
g0
(g55
g2
Ntp5164
Rp5165
(dp5166
g15
I1
sbsg83
g0
(g55
g2
Ntp5167
Rp5168
(dp5169
g15
I1
sbsg54
g0
(g55
g2
Ntp5170
Rp5171
(dp5172
g15
I0
sbsg90
g0
(g91
g2
Ntp5173
Rp5174
(dp5175
g15
I00
sbsg59
g5158
sg60
g5093
sg15
g5108
sg61
g0
(g11
g2
Ntp5176
Rp5177
(dp5178
g15
(dp5179
sbsg179
g1102
sg219
g0
(g11
g2
Ntp5180
Rp5181
(dp5182
g15
(dp5183
sbsg263
g1134
sg280
g0
(g11
g2
Ntp5184
Rp5185
(dp5186
g15
(dp5187
sbsbssbsg280
g0
(g11
g2
Ntp5188
Rp5189
(dp5190
g15
(dp5191
sbsbssbsg179
g0
(g198
g2
Ntp5192
Rp5193
(dp5194
g184
g0
(g17
g2
Ntp5195
Rp5196
(dp5197
g15
g197
sbsbsg189
g0
(g11
g2
Ntp5198
Rp5199
(dp5200
g15
(dp5201
sbsg495
g0
(g11
g2
Ntp5202
Rp5203
(dp5204
g15
(dp5205
g0
(g17
g2
Ntp5206
Rp5207
(dp5208
g15
S'protected.formalisms.Rule.MTpre_Element'
p5209
sbg2668
sg0
(g17
g2
Ntp5210
Rp5211
(dp5212
g15
S'protected.formalisms.Rule.MTpost_Element'
p5213
sbg3256
sg0
(g17
g2
Ntp5214
Rp5215
(dp5216
g15
S'protected.formalisms.Rule.MT_Association'
p5217
sbg3075
ssbsg219
g0
(g11
g2
Ntp5218
Rp5219
(dp5220
g15
(dp5221
g0
(g45
g2
Ntp5222
Rp5223
(dp5224
g15
S'MT_label'
p5225
sbg0
(g228
g2
Ntp5226
Rp5227
(dp5228
g78
g0
(g55
g2
Ntp5229
Rp5230
(dp5231
g15
I1
sbsg83
g0
(g55
g2
Ntp5232
Rp5233
(dp5234
g15
I1
sbsg54
g0
(g55
g2
Ntp5235
Rp5236
(dp5237
g15
I1
sbsg90
g0
(g91
g2
Ntp5238
Rp5239
(dp5240
g15
I00
sbsg59
g5223
sg60
g3100
sg244
g0
(g45
g2
Ntp5241
Rp5242
(dp5243
g15
g307
sbsg61
g0
(g11
g2
Ntp5244
Rp5245
(dp5246
g15
(dp5247
g0
(g17
g2
Ntp5248
Rp5249
(dp5250
g15
S'protected.formalisms.Rule.MT_Element_a_MT_label'
p5251
sbg0
(g753
g2
Ntp5252
Rp5253
(dp5254
g78
g0
(g79
g2
Ntp5255
Rp5256
(dp5257
g15
Finf
sbsg83
g0
(g55
g2
Ntp5258
Rp5259
(dp5260
g15
I0
sbsg54
g0
(g55
g2
Ntp5261
Rp5262
(dp5263
g15
I0
sbsg90
g0
(g91
g2
Ntp5264
Rp5265
(dp5266
g15
I00
sbsg59
g0
(g45
g2
Ntp5267
Rp5268
(dp5269
g15
S'MT_Element_a_MT_label'
p5270
sbsg60
g1766
sg99
g0
(g100
g2
Ntp5271
Rp5272
(dp5273
g104
g3100
sg78
g0
(g79
g2
Ntp5274
Rp5275
(dp5276
g15
Finf
sbsg83
g0
(g55
g2
Ntp5277
Rp5278
(dp5279
g15
I0
sbsg167
g786
sg90
g0
(g91
g2
Ntp5280
Rp5281
(dp5282
g15
I00
sbsbsg202
g0
(g100
g2
Ntp5283
Rp5284
(dp5285
g104
g5227
sg78
g0
(g79
g2
Ntp5286
Rp5287
(dp5288
g15
Finf
sbsg83
g0
(g55
g2
Ntp5289
Rp5290
(dp5291
g15
I0
sbsg167
g994
sg90
g0
(g91
g2
Ntp5292
Rp5293
(dp5294
g15
I00
sbsbsg61
g0
(g11
g2
Ntp5295
Rp5296
(dp5297
g15
(dp5298
sbsg179
g0
(g180
g2
Ntp5299
Rp5300
(dp5301
g184
g0
(g17
g2
Ntp5302
Rp5303
(dp5304
g15
g1517
sbsbsg189
g0
(g11
g2
Ntp5305
Rp5306
(dp5307
g15
(dp5308
sbsg495
g0
(g11
g2
Ntp5309
Rp5310
(dp5311
g15
(dp5312
sbsg219
g0
(g11
g2
Ntp5313
Rp5314
(dp5315
g15
(dp5316
g0
(g45
g2
Ntp5317
Rp5318
(dp5319
g15
S'attributes.name'
p5320
sbg0
(g228
g2
Ntp5321
Rp5322
(dp5323
g78
g0
(g55
g2
Ntp5324
Rp5325
(dp5326
g15
I1
sbsg83
g0
(g55
g2
Ntp5327
Rp5328
(dp5329
g15
I1
sbsg54
g0
(g55
g2
Ntp5330
Rp5331
(dp5332
g15
I0
sbsg90
g0
(g91
g2
Ntp5333
Rp5334
(dp5335
g15
I00
sbsg59
g5318
sg60
g5253
sg15
g5268
sg61
g0
(g11
g2
Ntp5336
Rp5337
(dp5338
g15
(dp5339
sbsg179
g1008
sg219
g0
(g11
g2
Ntp5340
Rp5341
(dp5342
g15
(dp5343
sbsg263
g1040
sg280
g0
(g11
g2
Ntp5344
Rp5345
(dp5346
g15
(dp5347
sbsbssbsg280
g0
(g11
g2
Ntp5348
Rp5349
(dp5350
g15
(dp5351
sbsbssbsg179
g0
(g198
g2
Ntp5352
Rp5353
(dp5354
g184
g0
(g17
g2
Ntp5355
Rp5356
(dp5357
g15
g1326
sbsbsg219
g0
(g11
g2
Ntp5358
Rp5359
(dp5360
g15
(dp5361
sbsg263
g2356
sg280
g0
(g11
g2
Ntp5362
Rp5363
(dp5364
g15
(dp5365
sbsbsg0
(g45
g2
Ntp5366
Rp5367
(dp5368
g15
S'Class.name'
p5369
sbg0
(g228
g2
Ntp5370
Rp5371
(dp5372
g78
g0
(g55
g2
Ntp5373
Rp5374
(dp5375
g15
I1
sbsg83
g0
(g55
g2
Ntp5376
Rp5377
(dp5378
g15
I1
sbsg54
g0
(g55
g2
Ntp5379
Rp5380
(dp5381
g15
I0
sbsg90
g0
(g91
g2
Ntp5382
Rp5383
(dp5384
g15
I00
sbsg59
g5367
sg60
g3100
sg15
g3115
sg61
g0
(g11
g2
Ntp5385
Rp5386
(dp5387
g15
(dp5388
sbsg179
g658
sg219
g0
(g11
g2
Ntp5389
Rp5390
(dp5391
g15
(dp5392
sbsg263
g690
sg280
g0
(g11
g2
Ntp5393
Rp5394
(dp5395
g15
(dp5396
sbsbsg0
(g45
g2
Ntp5397
Rp5398
(dp5399
g15
S'Class.is_abstract'
p5400
sbg0
(g228
g2
Ntp5401
Rp5402
(dp5403
g78
g0
(g55
g2
Ntp5404
Rp5405
(dp5406
g15
I1
sbsg83
g0
(g55
g2
Ntp5407
Rp5408
(dp5409
g15
I1
sbsg54
g0
(g55
g2
Ntp5410
Rp5411
(dp5412
g15
I0
sbsg90
g0
(g91
g2
Ntp5413
Rp5414
(dp5415
g15
I00
sbsg59
g5398
sg60
g3100
sg15
g3119
sg61
g0
(g11
g2
Ntp5416
Rp5417
(dp5418
g15
(dp5419
sbsg179
g615
sg219
g0
(g11
g2
Ntp5420
Rp5421
(dp5422
g15
(dp5423
sbsg263
g648
sg280
g0
(g11
g2
Ntp5424
Rp5425
(dp5426
g15
(dp5427
sbsbsg0
(g45
g2
Ntp5428
Rp5429
(dp5430
g15
S'Class.id_field'
p5431
sbg0
(g228
g2
Ntp5432
Rp5433
(dp5434
g78
g0
(g55
g2
Ntp5435
Rp5436
(dp5437
g15
I1
sbsg83
g0
(g55
g2
Ntp5438
Rp5439
(dp5440
g15
I1
sbsg54
g0
(g55
g2
Ntp5441
Rp5442
(dp5443
g15
I0
sbsg90
g0
(g91
g2
Ntp5444
Rp5445
(dp5446
g15
I00
sbsg59
g5429
sg60
g3100
sg15
g0
(g45
g2
Ntp5447
Rp5448
(dp5449
g15
S'MT_Element.id'
p5450
sbsg61
g0
(g11
g2
Ntp5451
Rp5452
(dp5453
g15
(dp5454
sbsg179
g700
sg219
g0
(g11
g2
Ntp5455
Rp5456
(dp5457
g15
(dp5458
sbsg263
g732
sg280
g0
(g11
g2
Ntp5459
Rp5460
(dp5461
g15
(dp5462
sbsbsg0
(g45
g2
Ntp5463
Rp5464
(dp5465
g15
g1293
sbg0
(g228
g2
Ntp5466
Rp5467
(dp5468
g78
g0
(g55
g2
Ntp5469
Rp5470
(dp5471
g15
I1
sbsg83
g0
(g55
g2
Ntp5472
Rp5473
(dp5474
g15
I1
sbsg54
g0
(g55
g2
Ntp5475
Rp5476
(dp5477
g15
I1
sbsg90
g0
(g91
g2
Ntp5478
Rp5479
(dp5480
g15
I00
sbsg59
g5464
sg60
g3100
sg244
g0
(g45
g2
Ntp5481
Rp5482
(dp5483
g15
g307
sbsg61
g0
(g11
g2
Ntp5484
Rp5485
(dp5486
g15
(dp5487
g0
(g17
g2
Ntp5488
Rp5489
(dp5490
g15
S'protected.formalisms.Rule.MT_Element_a_id'
p5491
sbg0
(g753
g2
Ntp5492
Rp5493
(dp5494
g78
g0
(g79
g2
Ntp5495
Rp5496
(dp5497
g15
Finf
sbsg83
g0
(g55
g2
Ntp5498
Rp5499
(dp5500
g15
I0
sbsg54
g0
(g55
g2
Ntp5501
Rp5502
(dp5503
g15
I0
sbsg90
g0
(g91
g2
Ntp5504
Rp5505
(dp5506
g15
I00
sbsg59
g0
(g45
g2
Ntp5507
Rp5508
(dp5509
g15
S'MT_Element_a_id'
p5510
sbsg60
g1766
sg99
g0
(g100
g2
Ntp5511
Rp5512
(dp5513
g104
g3100
sg78
g0
(g79
g2
Ntp5514
Rp5515
(dp5516
g15
Finf
sbsg83
g0
(g55
g2
Ntp5517
Rp5518
(dp5519
g15
I0
sbsg167
g786
sg90
g0
(g91
g2
Ntp5520
Rp5521
(dp5522
g15
I00
sbsbsg202
g0
(g100
g2
Ntp5523
Rp5524
(dp5525
g104
g5467
sg78
g0
(g79
g2
Ntp5526
Rp5527
(dp5528
g15
Finf
sbsg83
g0
(g55
g2
Ntp5529
Rp5530
(dp5531
g15
I0
sbsg167
g994
sg90
g0
(g91
g2
Ntp5532
Rp5533
(dp5534
g15
I00
sbsbsg61
g0
(g11
g2
Ntp5535
Rp5536
(dp5537
g15
(dp5538
sbsg179
g0
(g180
g2
Ntp5539
Rp5540
(dp5541
g184
g0
(g17
g2
Ntp5542
Rp5543
(dp5544
g15
g1517
sbsbsg189
g0
(g11
g2
Ntp5545
Rp5546
(dp5547
g15
(dp5548
sbsg495
g0
(g11
g2
Ntp5549
Rp5550
(dp5551
g15
(dp5552
sbsg219
g0
(g11
g2
Ntp5553
Rp5554
(dp5555
g15
(dp5556
g0
(g45
g2
Ntp5557
Rp5558
(dp5559
g15
S'attributes.name'
p5560
sbg0
(g228
g2
Ntp5561
Rp5562
(dp5563
g78
g0
(g55
g2
Ntp5564
Rp5565
(dp5566
g15
I1
sbsg83
g0
(g55
g2
Ntp5567
Rp5568
(dp5569
g15
I1
sbsg54
g0
(g55
g2
Ntp5570
Rp5571
(dp5572
g15
I0
sbsg90
g0
(g91
g2
Ntp5573
Rp5574
(dp5575
g15
I00
sbsg59
g5558
sg60
g5493
sg15
g5508
sg61
g0
(g11
g2
Ntp5576
Rp5577
(dp5578
g15
(dp5579
sbsg179
g1008
sg219
g0
(g11
g2
Ntp5580
Rp5581
(dp5582
g15
(dp5583
sbsg263
g1040
sg280
g0
(g11
g2
Ntp5584
Rp5585
(dp5586
g15
(dp5587
sbsbssbsg280
g0
(g11
g2
Ntp5588
Rp5589
(dp5590
g15
(dp5591
sbsbssbsg179
g0
(g198
g2
Ntp5592
Rp5593
(dp5594
g184
g0
(g17
g2
Ntp5595
Rp5596
(dp5597
g15
g1326
sbsbsg219
g0
(g11
g2
Ntp5598
Rp5599
(dp5600
g15
(dp5601
sbsg263
g2356
sg280
g0
(g11
g2
Ntp5602
Rp5603
(dp5604
g15
(dp5605
sbsbssbsg280
g0
(g11
g2
Ntp5606
Rp5607
(dp5608
g15
(dp5609
g0
(g17
g2
Ntp5610
Rp5611
(dp5612
g15
S'protected.formalisms.Rule.MT_Element_a_id'
p5613
sbg5493
sg0
(g17
g2
Ntp5614
Rp5615
(dp5616
g15
S'protected.formalisms.Rule.MT_Element_a_MT_label'
p5617
sbg5253
sg0
(g17
g2
Ntp5618
Rp5619
(dp5620
g15
S'protected.formalisms.Rule.MT_Association'
p5621
sbg3075
ssbsbsg78
g0
(g79
g2
Ntp5622
Rp5623
(dp5624
g15
Finf
sbsg83
g0
(g55
g2
Ntp5625
Rp5626
(dp5627
g15
I0
sbsg167
g0
(g45
g2
Ntp5628
Rp5629
(dp5630
g15
g2735
sbsg90
g0
(g91
g2
Ntp5631
Rp5632
(dp5633
g15
I00
sbsbsg61
g0
(g11
g2
Ntp5634
Rp5635
(dp5636
g15
(dp5637
g0
(g17
g2
Ntp5638
Rp5639
(dp5640
g15
S'protected.formalisms.Rule.pre_i_assoc'
p5641
sbg3041
sg0
(g17
g2
Ntp5642
Rp5643
(dp5644
g15
S'protected.formalisms.Rule.post_i_assoc'
p5645
sbg3622
ssbsg179
g0
(g180
g2
Ntp5646
Rp5647
(dp5648
g184
g0
(g17
g2
Ntp5649
Rp5650
(dp5651
g15
g2659
sbsbsg189
g0
(g11
g2
Ntp5652
Rp5653
(dp5654
g15
(dp5655
g0
(g17
g2
Ntp5656
Rp5657
(dp5658
g15
g4920
sbg0
(g198
g2
Ntp5659
Rp5660
(dp5661
g184
g5657
sbssbsg202
g0
(g100
g2
Ntp5662
Rp5663
(dp5664
g104
g3100
sg78
g0
(g79
g2
Ntp5665
Rp5666
(dp5667
g15
Finf
sbsg83
g0
(g55
g2
Ntp5668
Rp5669
(dp5670
g15
I0
sbsg167
g0
(g45
g2
Ntp5671
Rp5672
(dp5673
g15
g2772
sbsg90
g0
(g91
g2
Ntp5674
Rp5675
(dp5676
g15
I00
sbsbsg219
g0
(g11
g2
Ntp5677
Rp5678
(dp5679
g15
(dp5680
g0
(g45
g2
Ntp5681
Rp5682
(dp5683
g15
S'Association.to_min'
p5684
sbg0
(g228
g2
Ntp5685
Rp5686
(dp5687
g78
g0
(g55
g2
Ntp5688
Rp5689
(dp5690
g15
I1
sbsg83
g0
(g55
g2
Ntp5691
Rp5692
(dp5693
g15
I1
sbsg54
g0
(g55
g2
Ntp5694
Rp5695
(dp5696
g15
I0
sbsg90
g0
(g91
g2
Ntp5697
Rp5698
(dp5699
g15
I00
sbsg59
g5682
sg60
g3075
sg15
g5669
sg61
g0
(g11
g2
Ntp5700
Rp5701
(dp5702
g15
(dp5703
sbsg179
g458
sg219
g0
(g11
g2
Ntp5704
Rp5705
(dp5706
g15
(dp5707
sbsg263
g490
sg280
g0
(g11
g2
Ntp5708
Rp5709
(dp5710
g15
(dp5711
sbsbsg0
(g45
g2
Ntp5712
Rp5713
(dp5714
g15
S'Association.to_port'
p5715
sbg0
(g228
g2
Ntp5716
Rp5717
(dp5718
g78
g0
(g55
g2
Ntp5719
Rp5720
(dp5721
g15
I1
sbsg83
g0
(g55
g2
Ntp5722
Rp5723
(dp5724
g15
I1
sbsg54
g0
(g55
g2
Ntp5725
Rp5726
(dp5727
g15
I0
sbsg90
g0
(g91
g2
Ntp5728
Rp5729
(dp5730
g15
I00
sbsg59
g5713
sg60
g3075
sg15
g5672
sg61
g0
(g11
g2
Ntp5731
Rp5732
(dp5733
g15
(dp5734
sbsg179
g290
sg219
g0
(g11
g2
Ntp5735
Rp5736
(dp5737
g15
(dp5738
sbsg263
g324
sg280
g0
(g11
g2
Ntp5739
Rp5740
(dp5741
g15
(dp5742
sbsbsg0
(g45
g2
Ntp5743
Rp5744
(dp5745
g15
S'Association.from_port'
p5746
sbg0
(g228
g2
Ntp5747
Rp5748
(dp5749
g78
g0
(g55
g2
Ntp5750
Rp5751
(dp5752
g15
I1
sbsg83
g0
(g55
g2
Ntp5753
Rp5754
(dp5755
g15
I1
sbsg54
g0
(g55
g2
Ntp5756
Rp5757
(dp5758
g15
I0
sbsg90
g0
(g91
g2
Ntp5759
Rp5760
(dp5761
g15
I00
sbsg59
g5744
sg60
g3075
sg15
g5629
sg61
g0
(g11
g2
Ntp5762
Rp5763
(dp5764
g15
(dp5765
sbsg179
g416
sg219
g0
(g11
g2
Ntp5766
Rp5767
(dp5768
g15
(dp5769
sbsg263
g448
sg280
g0
(g11
g2
Ntp5770
Rp5771
(dp5772
g15
(dp5773
sbsbsg0
(g45
g2
Ntp5774
Rp5775
(dp5776
g15
S'Association.from_min'
p5777
sbg0
(g228
g2
Ntp5778
Rp5779
(dp5780
g78
g0
(g55
g2
Ntp5781
Rp5782
(dp5783
g15
I1
sbsg83
g0
(g55
g2
Ntp5784
Rp5785
(dp5786
g15
I1
sbsg54
g0
(g55
g2
Ntp5787
Rp5788
(dp5789
g15
I0
sbsg90
g0
(g91
g2
Ntp5790
Rp5791
(dp5792
g15
I00
sbsg59
g5775
sg60
g3075
sg15
g5626
sg61
g0
(g11
g2
Ntp5793
Rp5794
(dp5795
g15
(dp5796
sbsg179
g374
sg219
g0
(g11
g2
Ntp5797
Rp5798
(dp5799
g15
(dp5800
sbsg263
g406
sg280
g0
(g11
g2
Ntp5801
Rp5802
(dp5803
g15
(dp5804
sbsbsg0
(g45
g2
Ntp5805
Rp5806
(dp5807
g15
S'Class.name'
p5808
sbg0
(g228
g2
Ntp5809
Rp5810
(dp5811
g78
g0
(g55
g2
Ntp5812
Rp5813
(dp5814
g15
I1
sbsg83
g0
(g55
g2
Ntp5815
Rp5816
(dp5817
g15
I1
sbsg54
g0
(g55
g2
Ntp5818
Rp5819
(dp5820
g15
I0
sbsg90
g0
(g91
g2
Ntp5821
Rp5822
(dp5823
g15
I00
sbsg59
g5806
sg60
g3075
sg15
g3090
sg61
g0
(g11
g2
Ntp5824
Rp5825
(dp5826
g15
(dp5827
sbsg179
g658
sg219
g0
(g11
g2
Ntp5828
Rp5829
(dp5830
g15
(dp5831
sbsg263
g690
sg280
g0
(g11
g2
Ntp5832
Rp5833
(dp5834
g15
(dp5835
sbsbsg0
(g45
g2
Ntp5836
Rp5837
(dp5838
g15
S'Class.is_abstract'
p5839
sbg0
(g228
g2
Ntp5840
Rp5841
(dp5842
g78
g0
(g55
g2
Ntp5843
Rp5844
(dp5845
g15
I1
sbsg83
g0
(g55
g2
Ntp5846
Rp5847
(dp5848
g15
I1
sbsg54
g0
(g55
g2
Ntp5849
Rp5850
(dp5851
g15
I0
sbsg90
g0
(g91
g2
Ntp5852
Rp5853
(dp5854
g15
I00
sbsg59
g5837
sg60
g3075
sg15
g3094
sg61
g0
(g11
g2
Ntp5855
Rp5856
(dp5857
g15
(dp5858
sbsg179
g615
sg219
g0
(g11
g2
Ntp5859
Rp5860
(dp5861
g15
(dp5862
sbsg263
g648
sg280
g0
(g11
g2
Ntp5863
Rp5864
(dp5865
g15
(dp5866
sbsbsg0
(g45
g2
Ntp5867
Rp5868
(dp5869
g15
S'Association.to_max'
p5870
sbg0
(g228
g2
Ntp5871
Rp5872
(dp5873
g78
g0
(g55
g2
Ntp5874
Rp5875
(dp5876
g15
I1
sbsg83
g0
(g55
g2
Ntp5877
Rp5878
(dp5879
g15
I1
sbsg54
g0
(g55
g2
Ntp5880
Rp5881
(dp5882
g15
I0
sbsg90
g0
(g91
g2
Ntp5883
Rp5884
(dp5885
g15
I00
sbsg59
g5868
sg60
g3075
sg15
g5666
sg61
g0
(g11
g2
Ntp5886
Rp5887
(dp5888
g15
(dp5889
sbsg179
g334
sg219
g0
(g11
g2
Ntp5890
Rp5891
(dp5892
g15
(dp5893
sbsg263
g266
sg280
g0
(g11
g2
Ntp5894
Rp5895
(dp5896
g15
(dp5897
sbsbsg0
(g45
g2
Ntp5898
Rp5899
(dp5900
g15
S'Association.from_max'
p5901
sbg0
(g228
g2
Ntp5902
Rp5903
(dp5904
g78
g0
(g55
g2
Ntp5905
Rp5906
(dp5907
g15
I1
sbsg83
g0
(g55
g2
Ntp5908
Rp5909
(dp5910
g15
I1
sbsg54
g0
(g55
g2
Ntp5911
Rp5912
(dp5913
g15
I0
sbsg90
g0
(g91
g2
Ntp5914
Rp5915
(dp5916
g15
I00
sbsg59
g5899
sg60
g3075
sg15
g5623
sg61
g0
(g11
g2
Ntp5917
Rp5918
(dp5919
g15
(dp5920
sbsg179
g230
sg219
g0
(g11
g2
Ntp5921
Rp5922
(dp5923
g15
(dp5924
sbsg263
g266
sg280
g0
(g11
g2
Ntp5925
Rp5926
(dp5927
g15
(dp5928
sbsbssbsg495
g0
(g11
g2
Ntp5929
Rp5930
(dp5931
g15
(dp5932
g0
(g17
g2
Ntp5933
Rp5934
(dp5935
g15
S'protected.formalisms.Rule.MTpost_Association'
p5936
sbg3286
sg0
(g17
g2
Ntp5937
Rp5938
(dp5939
g15
S'protected.formalisms.Rule.MTpre_Association'
p5940
sbg2702
ssbsg280
g0
(g11
g2
Ntp5941
Rp5942
(dp5943
g15
(dp5944
g0
(g17
g2
Ntp5945
Rp5946
(dp5947
g15
S'protected.formalisms.Rule.assoc_i_el'
p5948
sbg5093
ssbsbsg78
g0
(g79
g2
Ntp5949
Rp5950
(dp5951
g15
Finf
sbsg83
g0
(g55
g2
Ntp5952
Rp5953
(dp5954
g15
I0
sbsg167
g1089
sg90
g0
(g91
g2
Ntp5955
Rp5956
(dp5957
g15
I00
sbsbsg61
g0
(g11
g2
Ntp5958
Rp5959
(dp5960
g15
(dp5961
sbsg179
g0
(g180
g2
Ntp5962
Rp5963
(dp5964
g184
g0
(g17
g2
Ntp5965
Rp5966
(dp5967
g15
g2137
sbsbsg189
g0
(g11
g2
Ntp5968
Rp5969
(dp5970
g15
(dp5971
sbsg495
g0
(g11
g2
Ntp5972
Rp5973
(dp5974
g15
(dp5975
sbsg219
g0
(g11
g2
Ntp5976
Rp5977
(dp5978
g15
(dp5979
g0
(g45
g2
Ntp5980
Rp5981
(dp5982
g15
S'Inheritance.name'
p5983
sbg0
(g228
g2
Ntp5984
Rp5985
(dp5986
g78
g0
(g55
g2
Ntp5987
Rp5988
(dp5989
g15
I1
sbsg83
g0
(g55
g2
Ntp5990
Rp5991
(dp5992
g15
I1
sbsg54
g0
(g55
g2
Ntp5993
Rp5994
(dp5995
g15
I0
sbsg90
g0
(g91
g2
Ntp5996
Rp5997
(dp5998
g15
I00
sbsg59
g5981
sg60
g3041
sg15
g3056
sg61
g0
(g11
g2
Ntp5999
Rp6000
(dp6001
g15
(dp6002
sbsg179
g1102
sg219
g0
(g11
g2
Ntp6003
Rp6004
(dp6005
g15
(dp6006
sbsg263
g1134
sg280
g0
(g11
g2
Ntp6007
Rp6008
(dp6009
g15
(dp6010
sbsbssbsg280
g0
(g11
g2
Ntp6011
Rp6012
(dp6013
g15
(dp6014
sbsbssbsbssbsg179
g0
(g198
g2
Ntp6015
Rp6016
(dp6017
g184
g0
(g17
g2
Ntp6018
Rp6019
(dp6020
g15
g197
sbsbsg189
g0
(g11
g2
Ntp6021
Rp6022
(dp6023
g15
(dp6024
g0
(g17
g2
Ntp6025
Rp6026
(dp6027
g15
g4920
sbg0
(g198
g2
Ntp6028
Rp6029
(dp6030
g184
g6026
sbssbsg495
g0
(g11
g2
Ntp6031
Rp6032
(dp6033
g15
(dp6034
sbsg219
g0
(g11
g2
Ntp6035
Rp6036
(dp6037
g15
(dp6038
g0
(g45
g2
Ntp6039
Rp6040
(dp6041
g15
S'Class.name'
p6042
sbg0
(g228
g2
Ntp6043
Rp6044
(dp6045
g78
g0
(g55
g2
Ntp6046
Rp6047
(dp6048
g15
I1
sbsg83
g0
(g55
g2
Ntp6049
Rp6050
(dp6051
g15
I1
sbsg54
g0
(g55
g2
Ntp6052
Rp6053
(dp6054
g15
I0
sbsg90
g0
(g91
g2
Ntp6055
Rp6056
(dp6057
g15
I00
sbsg59
g6040
sg60
g2668
sg15
g2683
sg61
g0
(g11
g2
Ntp6058
Rp6059
(dp6060
g15
(dp6061
sbsg179
g658
sg219
g0
(g11
g2
Ntp6062
Rp6063
(dp6064
g15
(dp6065
sbsg263
g690
sg280
g0
(g11
g2
Ntp6066
Rp6067
(dp6068
g15
(dp6069
sbsbsg0
(g45
g2
Ntp6070
Rp6071
(dp6072
g15
S'Class.is_abstract'
p6073
sbg0
(g228
g2
Ntp6074
Rp6075
(dp6076
g78
g0
(g55
g2
Ntp6077
Rp6078
(dp6079
g15
I1
sbsg83
g0
(g55
g2
Ntp6080
Rp6081
(dp6082
g15
I1
sbsg54
g0
(g55
g2
Ntp6083
Rp6084
(dp6085
g15
I0
sbsg90
g0
(g91
g2
Ntp6086
Rp6087
(dp6088
g15
I00
sbsg59
g6071
sg60
g2668
sg15
g2687
sg61
g0
(g11
g2
Ntp6089
Rp6090
(dp6091
g15
(dp6092
sbsg179
g615
sg219
g0
(g11
g2
Ntp6093
Rp6094
(dp6095
g15
(dp6096
sbsg263
g648
sg280
g0
(g11
g2
Ntp6097
Rp6098
(dp6099
g15
(dp6100
sbsbssbsg280
g0
(g11
g2
Ntp6101
Rp6102
(dp6103
g15
(dp6104
g0
(g17
g2
Ntp6105
Rp6106
(dp6107
g15
S'protected.formalisms.Rule.pre_i_el'
p6108
sbg3130
sg0
(g17
g2
Ntp6109
Rp6110
(dp6111
g15
S'protected.formalisms.Rule.MTpre_Association'
p6112
sbg2702
ssbsbsg78
g0
(g79
g2
Ntp6113
Rp6114
(dp6115
g15
Finf
sbsg83
g0
(g55
g2
Ntp6116
Rp6117
(dp6118
g15
I0
sbsg167
g0
(g45
g2
Ntp6119
Rp6120
(dp6121
g15
g2772
sbsg90
g0
(g91
g2
Ntp6122
Rp6123
(dp6124
g15
I00
sbsbsg219
g0
(g11
g2
Ntp6125
Rp6126
(dp6127
g15
(dp6128
g0
(g45
g2
Ntp6129
Rp6130
(dp6131
g15
S'Association.to_min'
p6132
sbg0
(g228
g2
Ntp6133
Rp6134
(dp6135
g78
g0
(g55
g2
Ntp6136
Rp6137
(dp6138
g15
I1
sbsg83
g0
(g55
g2
Ntp6139
Rp6140
(dp6141
g15
I1
sbsg54
g0
(g55
g2
Ntp6142
Rp6143
(dp6144
g15
I0
sbsg90
g0
(g91
g2
Ntp6145
Rp6146
(dp6147
g15
I00
sbsg59
g6130
sg60
g2612
sg15
g6117
sg61
g0
(g11
g2
Ntp6148
Rp6149
(dp6150
g15
(dp6151
sbsg179
g458
sg219
g0
(g11
g2
Ntp6152
Rp6153
(dp6154
g15
(dp6155
sbsg263
g490
sg280
g0
(g11
g2
Ntp6156
Rp6157
(dp6158
g15
(dp6159
sbsbsg0
(g45
g2
Ntp6160
Rp6161
(dp6162
g15
S'Association.to_port'
p6163
sbg0
(g228
g2
Ntp6164
Rp6165
(dp6166
g78
g0
(g55
g2
Ntp6167
Rp6168
(dp6169
g15
I1
sbsg83
g0
(g55
g2
Ntp6170
Rp6171
(dp6172
g15
I1
sbsg54
g0
(g55
g2
Ntp6173
Rp6174
(dp6175
g15
I0
sbsg90
g0
(g91
g2
Ntp6176
Rp6177
(dp6178
g15
I00
sbsg59
g6161
sg60
g2612
sg15
g6120
sg61
g0
(g11
g2
Ntp6179
Rp6180
(dp6181
g15
(dp6182
sbsg179
g290
sg219
g0
(g11
g2
Ntp6183
Rp6184
(dp6185
g15
(dp6186
sbsg263
g324
sg280
g0
(g11
g2
Ntp6187
Rp6188
(dp6189
g15
(dp6190
sbsbsg0
(g45
g2
Ntp6191
Rp6192
(dp6193
g15
S'Association.from_port'
p6194
sbg0
(g228
g2
Ntp6195
Rp6196
(dp6197
g78
g0
(g55
g2
Ntp6198
Rp6199
(dp6200
g15
I1
sbsg83
g0
(g55
g2
Ntp6201
Rp6202
(dp6203
g15
I1
sbsg54
g0
(g55
g2
Ntp6204
Rp6205
(dp6206
g15
I0
sbsg90
g0
(g91
g2
Ntp6207
Rp6208
(dp6209
g15
I00
sbsg59
g6192
sg60
g2612
sg15
g2643
sg61
g0
(g11
g2
Ntp6210
Rp6211
(dp6212
g15
(dp6213
sbsg179
g416
sg219
g0
(g11
g2
Ntp6214
Rp6215
(dp6216
g15
(dp6217
sbsg263
g448
sg280
g0
(g11
g2
Ntp6218
Rp6219
(dp6220
g15
(dp6221
sbsbsg0
(g45
g2
Ntp6222
Rp6223
(dp6224
g15
S'Association.from_min'
p6225
sbg0
(g228
g2
Ntp6226
Rp6227
(dp6228
g78
g0
(g55
g2
Ntp6229
Rp6230
(dp6231
g15
I1
sbsg83
g0
(g55
g2
Ntp6232
Rp6233
(dp6234
g15
I1
sbsg54
g0
(g55
g2
Ntp6235
Rp6236
(dp6237
g15
I0
sbsg90
g0
(g91
g2
Ntp6238
Rp6239
(dp6240
g15
I00
sbsg59
g6223
sg60
g2612
sg15
g2640
sg61
g0
(g11
g2
Ntp6241
Rp6242
(dp6243
g15
(dp6244
sbsg179
g374
sg219
g0
(g11
g2
Ntp6245
Rp6246
(dp6247
g15
(dp6248
sbsg263
g406
sg280
g0
(g11
g2
Ntp6249
Rp6250
(dp6251
g15
(dp6252
sbsbsg0
(g45
g2
Ntp6253
Rp6254
(dp6255
g15
S'Class.id_field'
p6256
sbg0
(g228
g2
Ntp6257
Rp6258
(dp6259
g78
g0
(g55
g2
Ntp6260
Rp6261
(dp6262
g15
I1
sbsg83
g0
(g55
g2
Ntp6263
Rp6264
(dp6265
g15
I1
sbsg54
g0
(g55
g2
Ntp6266
Rp6267
(dp6268
g15
I0
sbsg90
g0
(g91
g2
Ntp6269
Rp6270
(dp6271
g15
I00
sbsg59
g6254
sg60
g2612
sg15
g0
(g45
g2
Ntp6272
Rp6273
(dp6274
g15
S'MTpre_Contents.id'
p6275
sbsg61
g0
(g11
g2
Ntp6276
Rp6277
(dp6278
g15
(dp6279
sbsg179
g700
sg219
g0
(g11
g2
Ntp6280
Rp6281
(dp6282
g15
(dp6283
sbsg263
g732
sg280
g0
(g11
g2
Ntp6284
Rp6285
(dp6286
g15
(dp6287
sbsbsg0
(g45
g2
Ntp6288
Rp6289
(dp6290
g15
S'Class.name'
p6291
sbg0
(g228
g2
Ntp6292
Rp6293
(dp6294
g78
g0
(g55
g2
Ntp6295
Rp6296
(dp6297
g15
I1
sbsg83
g0
(g55
g2
Ntp6298
Rp6299
(dp6300
g15
I1
sbsg54
g0
(g55
g2
Ntp6301
Rp6302
(dp6303
g15
I0
sbsg90
g0
(g91
g2
Ntp6304
Rp6305
(dp6306
g15
I00
sbsg59
g6289
sg60
g2612
sg15
g2627
sg61
g0
(g11
g2
Ntp6307
Rp6308
(dp6309
g15
(dp6310
sbsg179
g658
sg219
g0
(g11
g2
Ntp6311
Rp6312
(dp6313
g15
(dp6314
sbsg263
g690
sg280
g0
(g11
g2
Ntp6315
Rp6316
(dp6317
g15
(dp6318
sbsbsg0
(g45
g2
Ntp6319
Rp6320
(dp6321
g15
S'Class.is_abstract'
p6322
sbg0
(g228
g2
Ntp6323
Rp6324
(dp6325
g78
g0
(g55
g2
Ntp6326
Rp6327
(dp6328
g15
I1
sbsg83
g0
(g55
g2
Ntp6329
Rp6330
(dp6331
g15
I1
sbsg54
g0
(g55
g2
Ntp6332
Rp6333
(dp6334
g15
I0
sbsg90
g0
(g91
g2
Ntp6335
Rp6336
(dp6337
g15
I00
sbsg59
g6320
sg60
g2612
sg15
g2631
sg61
g0
(g11
g2
Ntp6338
Rp6339
(dp6340
g15
(dp6341
sbsg179
g615
sg219
g0
(g11
g2
Ntp6342
Rp6343
(dp6344
g15
(dp6345
sbsg263
g648
sg280
g0
(g11
g2
Ntp6346
Rp6347
(dp6348
g15
(dp6349
sbsbsg0
(g45
g2
Ntp6350
Rp6351
(dp6352
g15
S'Association.to_max'
p6353
sbg0
(g228
g2
Ntp6354
Rp6355
(dp6356
g78
g0
(g55
g2
Ntp6357
Rp6358
(dp6359
g15
I1
sbsg83
g0
(g55
g2
Ntp6360
Rp6361
(dp6362
g15
I1
sbsg54
g0
(g55
g2
Ntp6363
Rp6364
(dp6365
g15
I0
sbsg90
g0
(g91
g2
Ntp6366
Rp6367
(dp6368
g15
I00
sbsg59
g6351
sg60
g2612
sg15
g6114
sg61
g0
(g11
g2
Ntp6369
Rp6370
(dp6371
g15
(dp6372
sbsg179
g334
sg219
g0
(g11
g2
Ntp6373
Rp6374
(dp6375
g15
(dp6376
sbsg263
g266
sg280
g0
(g11
g2
Ntp6377
Rp6378
(dp6379
g15
(dp6380
sbsbsg0
(g45
g2
Ntp6381
Rp6382
(dp6383
g15
g1293
sbg0
(g228
g2
Ntp6384
Rp6385
(dp6386
g78
g0
(g55
g2
Ntp6387
Rp6388
(dp6389
g15
I1
sbsg83
g0
(g55
g2
Ntp6390
Rp6391
(dp6392
g15
I1
sbsg54
g0
(g55
g2
Ntp6393
Rp6394
(dp6395
g15
I1
sbsg90
g0
(g91
g2
Ntp6396
Rp6397
(dp6398
g15
I00
sbsg59
g6382
sg60
g2612
sg244
g0
(g45
g2
Ntp6399
Rp6400
(dp6401
g15
g307
sbsg61
g0
(g11
g2
Ntp6402
Rp6403
(dp6404
g15
(dp6405
g0
(g17
g2
Ntp6406
Rp6407
(dp6408
g15
S'protected.formalisms.Rule.MTpre_Contents_a_id'
p6409
sbg0
(g753
g2
Ntp6410
Rp6411
(dp6412
g78
g0
(g79
g2
Ntp6413
Rp6414
(dp6415
g15
Finf
sbsg83
g0
(g55
g2
Ntp6416
Rp6417
(dp6418
g15
I0
sbsg54
g0
(g55
g2
Ntp6419
Rp6420
(dp6421
g15
I0
sbsg90
g0
(g91
g2
Ntp6422
Rp6423
(dp6424
g15
I00
sbsg59
g0
(g45
g2
Ntp6425
Rp6426
(dp6427
g15
S'MTpre_Contents_a_id'
p6428
sbsg60
g1766
sg99
g0
(g100
g2
Ntp6429
Rp6430
(dp6431
g104
g2612
sg78
g0
(g79
g2
Ntp6432
Rp6433
(dp6434
g15
Finf
sbsg83
g0
(g55
g2
Ntp6435
Rp6436
(dp6437
g15
I0
sbsg167
g786
sg90
g0
(g91
g2
Ntp6438
Rp6439
(dp6440
g15
I00
sbsbsg202
g0
(g100
g2
Ntp6441
Rp6442
(dp6443
g104
g6385
sg78
g0
(g79
g2
Ntp6444
Rp6445
(dp6446
g15
Finf
sbsg83
g0
(g55
g2
Ntp6447
Rp6448
(dp6449
g15
I0
sbsg167
g994
sg90
g0
(g91
g2
Ntp6450
Rp6451
(dp6452
g15
I00
sbsbsg61
g0
(g11
g2
Ntp6453
Rp6454
(dp6455
g15
(dp6456
sbsg179
g0
(g180
g2
Ntp6457
Rp6458
(dp6459
g184
g0
(g17
g2
Ntp6460
Rp6461
(dp6462
g15
g1517
sbsbsg189
g0
(g11
g2
Ntp6463
Rp6464
(dp6465
g15
(dp6466
sbsg495
g0
(g11
g2
Ntp6467
Rp6468
(dp6469
g15
(dp6470
sbsg219
g0
(g11
g2
Ntp6471
Rp6472
(dp6473
g15
(dp6474
g0
(g45
g2
Ntp6475
Rp6476
(dp6477
g15
S'attributes.name'
p6478
sbg0
(g228
g2
Ntp6479
Rp6480
(dp6481
g78
g0
(g55
g2
Ntp6482
Rp6483
(dp6484
g15
I1
sbsg83
g0
(g55
g2
Ntp6485
Rp6486
(dp6487
g15
I1
sbsg54
g0
(g55
g2
Ntp6488
Rp6489
(dp6490
g15
I0
sbsg90
g0
(g91
g2
Ntp6491
Rp6492
(dp6493
g15
I00
sbsg59
g6476
sg60
g6411
sg15
g6426
sg61
g0
(g11
g2
Ntp6494
Rp6495
(dp6496
g15
(dp6497
sbsg179
g1008
sg219
g0
(g11
g2
Ntp6498
Rp6499
(dp6500
g15
(dp6501
sbsg263
g1040
sg280
g0
(g11
g2
Ntp6502
Rp6503
(dp6504
g15
(dp6505
sbsbssbsg280
g0
(g11
g2
Ntp6506
Rp6507
(dp6508
g15
(dp6509
sbsbssbsg179
g0
(g198
g2
Ntp6510
Rp6511
(dp6512
g184
g0
(g17
g2
Ntp6513
Rp6514
(dp6515
g15
g1326
sbsbsg219
g0
(g11
g2
Ntp6516
Rp6517
(dp6518
g15
(dp6519
sbsg263
g2356
sg280
g0
(g11
g2
Ntp6520
Rp6521
(dp6522
g15
(dp6523
sbsbsg0
(g45
g2
Ntp6524
Rp6525
(dp6526
g15
S'Association.from_max'
p6527
sbg0
(g228
g2
Ntp6528
Rp6529
(dp6530
g78
g0
(g55
g2
Ntp6531
Rp6532
(dp6533
g15
I1
sbsg83
g0
(g55
g2
Ntp6534
Rp6535
(dp6536
g15
I1
sbsg54
g0
(g55
g2
Ntp6537
Rp6538
(dp6539
g15
I0
sbsg90
g0
(g91
g2
Ntp6540
Rp6541
(dp6542
g15
I00
sbsg59
g6525
sg60
g2612
sg15
g2637
sg61
g0
(g11
g2
Ntp6543
Rp6544
(dp6545
g15
(dp6546
sbsg179
g230
sg219
g0
(g11
g2
Ntp6547
Rp6548
(dp6549
g15
(dp6550
sbsg263
g266
sg280
g0
(g11
g2
Ntp6551
Rp6552
(dp6553
g15
(dp6554
sbsbssbsg495
g0
(g11
g2
Ntp6555
Rp6556
(dp6557
g15
(dp6558
sbsg280
g0
(g11
g2
Ntp6559
Rp6560
(dp6561
g15
(dp6562
g0
(g17
g2
Ntp6563
Rp6564
(dp6565
g15
S'protected.formalisms.Rule.MTpre_Contents_a_id'
p6566
sbg6411
ssbsbsg0
(g17
g2
Ntp6567
Rp6568
(dp6569
g15
S'protected.formalisms.Rule.MTpre_Pattern_a_pattern_name'
p6570
sbg2246
sg0
(g17
g2
Ntp6571
Rp6572
(dp6573
g15
S'protected.formalisms.Rule.MTpre_Pattern_a_MT_constraint'
p6574
sbg2490
ssbsbsg78
g0
(g79
g2
Ntp6575
Rp6576
(dp6577
g15
Finf
sbsg83
g0
(g55
g2
Ntp6578
Rp6579
(dp6580
g15
I0
sbsg167
g1089
sg90
g0
(g91
g2
Ntp6581
Rp6582
(dp6583
g15
I00
sbsbsg61
g0
(g11
g2
Ntp6584
Rp6585
(dp6586
g15
(dp6587
sbsg179
g0
(g180
g2
Ntp6588
Rp6589
(dp6590
g184
g0
(g17
g2
Ntp6591
Rp6592
(dp6593
g15
g2137
sbsbsg189
g0
(g11
g2
Ntp6594
Rp6595
(dp6596
g15
(dp6597
sbsg495
g0
(g11
g2
Ntp6598
Rp6599
(dp6600
g15
(dp6601
sbsg219
g0
(g11
g2
Ntp6602
Rp6603
(dp6604
g15
(dp6605
g0
(g45
g2
Ntp6606
Rp6607
(dp6608
g15
S'Inheritance.name'
p6609
sbg0
(g228
g2
Ntp6610
Rp6611
(dp6612
g78
g0
(g55
g2
Ntp6613
Rp6614
(dp6615
g15
I1
sbsg83
g0
(g55
g2
Ntp6616
Rp6617
(dp6618
g15
I1
sbsg54
g0
(g55
g2
Ntp6619
Rp6620
(dp6621
g15
I0
sbsg90
g0
(g91
g2
Ntp6622
Rp6623
(dp6624
g15
I00
sbsg59
g6607
sg60
g1901
sg15
g1916
sg61
g0
(g11
g2
Ntp6625
Rp6626
(dp6627
g15
(dp6628
sbsg179
g1102
sg219
g0
(g11
g2
Ntp6629
Rp6630
(dp6631
g15
(dp6632
sbsg263
g1134
sg280
g0
(g11
g2
Ntp6633
Rp6634
(dp6635
g15
(dp6636
sbsbssbsg280
g0
(g11
g2
Ntp6637
Rp6638
(dp6639
g15
(dp6640
sbsbssbsbsg3301
g3286
sg4310
g4295
sg4766
g4751
sg1950
g1935
sg5508
g5493
sg2717
g2702
sg3637
g3622
sg2627
g2612
sg2683
g2668
sg3145
g3130
sg5108
g5093
sg2505
g2490
sg4068
g4053
sg3115
g3100
sg3056
g3041
sg1980
g1965
sg3249
g3234
sg2261
g2246
sg6426
g6411
sg2002
g1987
sg3741
g3726
sg3766
g3751
sg1916
g1901
sg5268
g5253
sg3090
g3075
sg3818
g3803
sg3271
g3256
sg3796
g3781
ssbsg219
g0
(g11
g2
Ntp6641
Rp6642
(dp6643
g15
(dp6644
g0
(g45
g2
Ntp6645
Rp6646
(dp6647
g15
S'SimpleClassDiagrams.name'
p6648
sbg0
(g228
g2
Ntp6649
Rp6650
(dp6651
g78
g0
(g55
g2
Ntp6652
Rp6653
(dp6654
g15
I1
sbsg83
g0
(g55
g2
Ntp6655
Rp6656
(dp6657
g15
I1
sbsg54
g0
(g55
g2
Ntp6658
Rp6659
(dp6660
g15
I0
sbsg90
g0
(g91
g2
Ntp6661
Rp6662
(dp6663
g15
I00
sbsg59
g6646
sg60
g1766
sg15
g1763
sg61
g0
(g11
g2
Ntp6664
Rp6665
(dp6666
g15
(dp6667
sbsg179
g1155
sg219
g0
(g11
g2
Ntp6668
Rp6669
(dp6670
g15
(dp6671
sbsg263
g1187
sg280
g0
(g11
g2
Ntp6672
Rp6673
(dp6674
g15
(dp6675
sbsbsg0
(g45
g2
Ntp6676
Rp6677
(dp6678
g15
g656
sbg0
(g228
g2
Ntp6679
Rp6680
(dp6681
g78
g0
(g55
g2
Ntp6682
Rp6683
(dp6684
g15
I1
sbsg83
g0
(g55
g2
Ntp6685
Rp6686
(dp6687
g15
I1
sbsg54
g0
(g55
g2
Ntp6688
Rp6689
(dp6690
g15
I1
sbsg90
g0
(g91
g2
Ntp6691
Rp6692
(dp6693
g15
I00
sbsg59
g6677
sg60
g1766
sg244
g0
(g45
g2
Ntp6694
Rp6695
(dp6696
g15
g307
sbsg61
g0
(g11
g2
Ntp6697
Rp6698
(dp6699
g15
(dp6700
sbsg179
g0
(g198
g2
Ntp6701
Rp6702
(dp6703
g184
g0
(g17
g2
Ntp6704
Rp6705
(dp6706
g15
g1738
sbsbsg219
g0
(g11
g2
Ntp6707
Rp6708
(dp6709
g15
(dp6710
sbsg263
g0
(g322
g2
Ntp6711
Rp6712
sg280
g0
(g11
g2
Ntp6713
Rp6714
(dp6715
g15
(dp6716
sbsbssbsg6
g0
(g7
g2
Ntp6717
Rp6718
sg280
g0
(g11
g2
Ntp6719
Rp6720
(dp6721
g15
(dp6722
sbsg179
g0
(g1198
g2
Ntp6723
Rp6724
(dp6725
g184
g0
(g17
g2
Ntp6726
Rp6727
(dp6728
g15
g1761
sbsbsbssbsg60
g24
sg59
g33
sbssbsg60
Nsg59
g19
sbsg0
(g17
g2
Ntp6729
Rp6730
(dp6731
g15
S't'
p6732
sbg0
(g22
g2
Ntp6733
Rp6734
(dp6735
g6
g0
(g7
g2
Ntp6736
Rp6737
sg10
g0
(g11
g2
Ntp6738
Rp6739
(dp6740
g15
(dp6741
g6695
g0
(g50
g2
Ntp6742
Rp6743
(dp6744
g54
g0
(g55
g2
Ntp6745
Rp6746
(dp6747
g15
I0
sbsg59
g6695
sg60
g6734
sg61
g0
(g11
g2
Ntp6748
Rp6749
(dp6750
g15
(dp6751
sbsg10
g0
(g11
g2
Ntp6752
Rp6753
(dp6754
g15
(dp6755
sbsg219
g0
(g11
g2
Ntp6756
Rp6757
(dp6758
g15
(dp6759
sbsg6
g0
(g7
g2
Ntp6760
Rp6761
sg280
g0
(g11
g2
Ntp6762
Rp6763
(dp6764
g15
(dp6765
sbsg179
g0
(g1198
g2
Ntp6766
Rp6767
(dp6768
g184
g0
(g17
g2
Ntp6769
Rp6770
(dp6771
g15
S'protected.formalisms.Rule'
p6772
sbsbsbsg0
(g45
g2
Ntp6773
Rp6774
(dp6775
g15
g6732
sbg0
(g50
g2
Ntp6776
Rp6777
(dp6778
g54
g0
(g55
g2
Ntp6779
Rp6780
(dp6781
g15
I0
sbsg59
g6774
sg60
g6734
sg61
g0
(g11
g2
Ntp6782
Rp6783
(dp6784
g15
(dp6785
sbsg10
g0
(g11
g2
Ntp6786
Rp6787
(dp6788
g15
(dp6789
g0
(g45
g2
Ntp6790
Rp6791
(dp6792
g15
S'c'
p6793
sbg0
(g105
g2
Ntp6794
Rp6795
(dp6796
g78
g0
(g79
g2
Ntp6797
Rp6798
(dp6799
g15
Finf
sbsg83
g0
(g55
g2
Ntp6800
Rp6801
(dp6802
g15
I0
sbsg54
g0
(g55
g2
Ntp6803
Rp6804
(dp6805
g15
I0
sbsg90
g0
(g91
g2
Ntp6806
Rp6807
(dp6808
g15
I00
sbsg59
g6791
sg60
g6777
sg61
g0
(g11
g2
Ntp6809
Rp6810
(dp6811
g15
(dp6812
sbsg179
g0
(g198
g2
Ntp6813
Rp6814
(dp6815
g184
g0
(g17
g2
Ntp6816
Rp6817
(dp6818
g15
S'protected.formalisms.Rule.RHS'
p6819
sbsbsg189
g0
(g11
g2
Ntp6820
Rp6821
(dp6822
g15
(dp6823
sbsg495
g0
(g11
g2
Ntp6824
Rp6825
(dp6826
g15
(dp6827
sbsg219
g0
(g11
g2
Ntp6828
Rp6829
(dp6830
g15
(dp6831
g0
(g45
g2
Ntp6832
Rp6833
(dp6834
g15
S'MTpost_Pattern.MT_action'
p6835
sbg0
(g228
g2
Ntp6836
Rp6837
(dp6838
g78
g0
(g55
g2
Ntp6839
Rp6840
(dp6841
g15
I1
sbsg83
g0
(g55
g2
Ntp6842
Rp6843
(dp6844
g15
I1
sbsg54
g0
(g55
g2
Ntp6845
Rp6846
(dp6847
g15
I0
sbsg90
g0
(g91
g2
Ntp6848
Rp6849
(dp6850
g15
I00
sbsg59
g6833
sg60
g6795
sg15
g0
(g45
g2
Ntp6851
Rp6852
(dp6853
g15
S'pass'
p6854
sbsg61
g0
(g11
g2
Ntp6855
Rp6856
(dp6857
g15
(dp6858
sbsg179
g4268
sg219
g0
(g11
g2
Ntp6859
Rp6860
(dp6861
g15
(dp6862
sbsg263
g2356
sg280
g0
(g11
g2
Ntp6863
Rp6864
(dp6865
g15
(dp6866
sbsbsg0
(g45
g2
Ntp6867
Rp6868
(dp6869
g15
S'MTpost_Pattern.pattern_name'
p6870
sbg0
(g228
g2
Ntp6871
Rp6872
(dp6873
g78
g0
(g55
g2
Ntp6874
Rp6875
(dp6876
g15
I1
sbsg83
g0
(g55
g2
Ntp6877
Rp6878
(dp6879
g15
I1
sbsg54
g0
(g55
g2
Ntp6880
Rp6881
(dp6882
g15
I0
sbsg90
g0
(g91
g2
Ntp6883
Rp6884
(dp6885
g15
I00
sbsg59
g6868
sg60
g6795
sg15
g6791
sg61
g0
(g11
g2
Ntp6886
Rp6887
(dp6888
g15
(dp6889
sbsg179
g4027
sg219
g0
(g11
g2
Ntp6890
Rp6891
(dp6892
g15
(dp6893
sbsg263
g2356
sg280
g0
(g11
g2
Ntp6894
Rp6895
(dp6896
g15
(dp6897
sbsbssbsg280
g0
(g11
g2
Ntp6898
Rp6899
(dp6900
g15
(dp6901
sbsbssbsg219
g0
(g11
g2
Ntp6902
Rp6903
(dp6904
g15
(dp6905
g0
(g45
g2
Ntp6906
Rp6907
(dp6908
g15
S'Rule.name'
p6909
sbg0
(g228
g2
Ntp6910
Rp6911
(dp6912
g78
g0
(g55
g2
Ntp6913
Rp6914
(dp6915
g15
I1
sbsg83
g0
(g55
g2
Ntp6916
Rp6917
(dp6918
g15
I1
sbsg54
g0
(g55
g2
Ntp6919
Rp6920
(dp6921
g15
I0
sbsg90
g0
(g91
g2
Ntp6922
Rp6923
(dp6924
g15
I00
sbsg59
g6907
sg60
g6777
sg15
g6774
sg61
g0
(g11
g2
Ntp6925
Rp6926
(dp6927
g15
(dp6928
sbsg179
g6680
sg219
g0
(g11
g2
Ntp6929
Rp6930
(dp6931
g15
(dp6932
sbsg263
g6712
sg280
g0
(g11
g2
Ntp6933
Rp6934
(dp6935
g15
(dp6936
sbsbssbsg6
g0
(g7
g2
Ntp6937
Rp6938
sg280
g0
(g11
g2
Ntp6939
Rp6940
(dp6941
g15
(dp6942
sbsg179
g0
(g1198
g2
Ntp6943
Rp6944
(dp6945
g184
g6770
sbsbssbsg60
Nsg59
g6730
sbssbsg60
Nsg59
g0
(g45
g2
Ntp6946
Rp6947
(dp6948
g15
g307
sbsb.