(ccopy_reg
_reconstructor
p0
(cmvk.impl.python.python_representer
PythonRepresenter
p1
c__builtin__
object
p2
Ntp3
Rp4
(dp5
S'root'
p6
g0
(cmvk.impl.python.python_representer
RootPackage
p7
g2
Ntp8
Rp9
(dp10
S'my_type'
p11
g0
(cmvk.impl.python.datatype
PackageType
p12
g2
Ntp13
Rp14
sS'name_lookup'
p15
g0
(cmvk.impl.python.datavalue
MappingValue
p16
g2
Ntp17
Rp18
(dp19
S'value'
p20
(dp21
g0
(cmvk.impl.python.datavalue
LocationValue
p22
g2
Ntp23
Rp24
(dp25
g20
S'protected'
p26
sbg0
(cmvk.impl.python.object
Package
p27
g2
Ntp28
Rp29
(dp30
g11
g0
(g12
g2
Ntp31
Rp32
sg15
g0
(g16
g2
Ntp33
Rp34
(dp35
g20
(dp36
g0
(g22
g2
Ntp37
Rp38
(dp39
g20
S'formalisms'
p40
sbg0
(g27
g2
Ntp41
Rp42
(dp43
g11
g0
(g12
g2
Ntp44
Rp45
sg15
g0
(g16
g2
Ntp46
Rp47
(dp48
g20
(dp49
g0
(cmvk.impl.python.datavalue
StringValue
p50
g2
Ntp51
Rp52
(dp53
g20
S'SimpleClassDiagrams'
p54
sbg0
(cmvk.impl.python.object
Model
p55
g2
Ntp56
Rp57
(dp58
S'potency'
p59
g0
(cmvk.impl.python.datavalue
IntegerValue
p60
g2
Ntp61
Rp62
(dp63
g20
I2
sbsS'name'
p64
g52
sS'parent'
p65
g42
sS'in_associations'
p66
g0
(g16
g2
Ntp67
Rp68
(dp69
g20
(dp70
sbsg15
g0
(g16
g2
Ntp71
Rp72
(dp73
g20
(dp74
g0
(g50
g2
Ntp75
Rp76
(dp77
g20
S'Inheritance'
p78
sbg0
(cmvk.impl.python.object
Association
p79
g2
Ntp80
Rp81
(dp82
S'upper'
p83
g0
(cmvk.impl.python.datavalue
InfiniteValue
p84
g2
Ntp85
Rp86
(dp87
g20
Finf
sbsS'lower'
p88
g0
(g60
g2
Ntp89
Rp90
(dp91
g20
I0
sbsg59
g0
(g60
g2
Ntp92
Rp93
(dp94
g20
I1
sbsS'ordered'
p95
g0
(cmvk.impl.python.datavalue
BooleanValue
p96
g2
Ntp97
Rp98
(dp99
g20
I00
sbsg64
g76
sg65
g57
sS'abstract'
p100
g0
(g96
g2
Ntp101
Rp102
(dp103
g20
I00
sbsS'from_multiplicity'
p104
g0
(cmvk.impl.python.object
AssociationEnd
p105
g2
Ntp106
Rp107
(dp108
S'node'
p109
g0
(cmvk.impl.python.object
Clabject
p110
g2
Ntp111
Rp112
(dp113
g83
g0
(g84
g2
Ntp114
Rp115
(dp116
g20
Finf
sbsg88
g0
(g60
g2
Ntp117
Rp118
(dp119
g20
I0
sbsg59
g0
(g60
g2
Ntp120
Rp121
(dp122
g20
I2
sbsg95
g0
(g96
g2
Ntp123
Rp124
(dp125
g20
I00
sbsg64
g0
(g50
g2
Ntp126
Rp127
(dp128
g20
S'Class'
p129
sbsg65
g57
sg100
g0
(g96
g2
Ntp130
Rp131
(dp132
g20
I00
sbsg66
g0
(g16
g2
Ntp133
Rp134
(dp135
g20
(dp136
g0
(g22
g2
Ntp137
Rp138
(dp139
g20
S'protected.formalisms.SimpleClassDiagrams.Association'
p140
sbg0
(g79
g2
Ntp141
Rp142
(dp143
g83
g0
(g84
g2
Ntp144
Rp145
(dp146
g20
Finf
sbsg88
g0
(g60
g2
Ntp147
Rp148
(dp149
g20
I0
sbsg59
g0
(g60
g2
Ntp150
Rp151
(dp152
g20
I2
sbsg95
g0
(g96
g2
Ntp153
Rp154
(dp155
g20
I00
sbsg64
g0
(g50
g2
Ntp156
Rp157
(dp158
g20
S'Association'
p159
sbsg65
g57
sg100
g0
(g96
g2
Ntp160
Rp161
(dp162
g20
I00
sbsg104
g0
(g105
g2
Ntp163
Rp164
(dp165
g109
g112
sg83
g0
(g84
g2
Ntp166
Rp167
(dp168
g20
Finf
sbsg88
g0
(g60
g2
Ntp169
Rp170
(dp171
g20
I0
sbsS'port_name'
p172
g0
(g50
g2
Ntp173
Rp174
(dp175
g20
S'from_class'
p176
sbsg95
g0
(g96
g2
Ntp177
Rp178
(dp179
g20
I00
sbsbsg66
g0
(g16
g2
Ntp180
Rp181
(dp182
g20
(dp183
sbsS'l_type'
p184
g0
(cmvk.impl.python.object
AssociationReference
p185
g2
Ntp186
Rp187
(dp188
S'path'
p189
g0
(g22
g2
Ntp190
Rp191
(dp192
g20
S'mvk.object.Association'
p193
sbsbsS'superclasses'
p194
g0
(g16
g2
Ntp195
Rp196
(dp197
g20
(dp198
g0
(g22
g2
Ntp199
Rp200
(dp201
g20
S'protected.formalisms.SimpleClassDiagrams.Class'
p202
sbg0
(cmvk.impl.python.object
ClabjectReference
p203
g2
Ntp204
Rp205
(dp206
g189
g200
sbssbsS'to_multiplicity'
p207
g0
(g105
g2
Ntp208
Rp209
(dp210
g109
g112
sg83
g0
(g84
g2
Ntp211
Rp212
(dp213
g20
Finf
sbsg88
g0
(g60
g2
Ntp214
Rp215
(dp216
g20
I0
sbsg172
g0
(g50
g2
Ntp217
Rp218
(dp219
g20
S'to_class'
p220
sbsg95
g0
(g96
g2
Ntp221
Rp222
(dp223
g20
I00
sbsbsS'attributes'
p224
g0
(g16
g2
Ntp225
Rp226
(dp227
g20
(dp228
g0
(g50
g2
Ntp229
Rp230
(dp231
g20
S'from_max'
p232
sbg0
(cmvk.impl.python.object
Attribute
p233
g2
Ntp234
Rp235
(dp236
g83
g0
(g60
g2
Ntp237
Rp238
(dp239
g20
I1
sbsg88
g0
(g60
g2
Ntp240
Rp241
(dp242
g20
I1
sbsg59
g0
(g60
g2
Ntp243
Rp244
(dp245
g20
I1
sbsg95
g0
(g96
g2
Ntp246
Rp247
(dp248
g20
I00
sbsg64
g230
sg65
g142
sS'default'
p249
g0
(g84
g2
Ntp250
Rp251
(dp252
g20
Finf
sbsg66
g0
(g16
g2
Ntp253
Rp254
(dp255
g20
(dp256
sbsg184
g0
(g203
g2
Ntp257
Rp258
(dp259
g189
g0
(g22
g2
Ntp260
Rp261
(dp262
g20
S'mvk.object.Attribute'
p263
sbsbsg224
g0
(g16
g2
Ntp264
Rp265
(dp266
g20
(dp267
sbsS'type'
p268
g0
(cmvk.impl.python.datatype
UnionType
p269
g2
Ntp270
Rp271
(dp272
S'types'
p273
g0
(cmvk.impl.python.datavalue
SequenceValue
p274
g2
Ntp275
Rp276
(dp277
g20
(lp278
g0
(cmvk.impl.python.datatype
IntegerType
p279
g2
Ntp280
Rp281
ag0
(cmvk.impl.python.datatype
InfiniteType
p282
g2
Ntp283
Rp284
asbsbsS'out_associations'
p285
g0
(g16
g2
Ntp286
Rp287
(dp288
g20
(dp289
sbsbsg0
(g50
g2
Ntp290
Rp291
(dp292
g20
S'to_port'
p293
sbg0
(g233
g2
Ntp294
Rp295
(dp296
g83
g0
(g60
g2
Ntp297
Rp298
(dp299
g20
I1
sbsg88
g0
(g60
g2
Ntp300
Rp301
(dp302
g20
I1
sbsg59
g0
(g60
g2
Ntp303
Rp304
(dp305
g20
I1
sbsg95
g0
(g96
g2
Ntp306
Rp307
(dp308
g20
I00
sbsg64
g291
sg65
g142
sg249
g0
(g50
g2
Ntp309
Rp310
(dp311
g20
S''
p312
sbsg66
g0
(g16
g2
Ntp313
Rp314
(dp315
g20
(dp316
sbsg184
g0
(g203
g2
Ntp317
Rp318
(dp319
g189
g0
(g22
g2
Ntp320
Rp321
(dp322
g20
g263
sbsbsg224
g0
(g16
g2
Ntp323
Rp324
(dp325
g20
(dp326
sbsg268
g0
(cmvk.impl.python.datatype
StringType
p327
g2
Ntp328
Rp329
sg285
g0
(g16
g2
Ntp330
Rp331
(dp332
g20
(dp333
sbsbsg0
(g50
g2
Ntp334
Rp335
(dp336
g20
S'to_max'
p337
sbg0
(g233
g2
Ntp338
Rp339
(dp340
g83
g0
(g60
g2
Ntp341
Rp342
(dp343
g20
I1
sbsg88
g0
(g60
g2
Ntp344
Rp345
(dp346
g20
I1
sbsg59
g0
(g60
g2
Ntp347
Rp348
(dp349
g20
I1
sbsg95
g0
(g96
g2
Ntp350
Rp351
(dp352
g20
I00
sbsg64
g335
sg65
g142
sg249
g0
(g84
g2
Ntp353
Rp354
(dp355
g20
Finf
sbsg66
g0
(g16
g2
Ntp356
Rp357
(dp358
g20
(dp359
sbsg184
g0
(g203
g2
Ntp360
Rp361
(dp362
g189
g0
(g22
g2
Ntp363
Rp364
(dp365
g20
g263
sbsbsg224
g0
(g16
g2
Ntp366
Rp367
(dp368
g20
(dp369
sbsg268
g271
sg285
g0
(g16
g2
Ntp370
Rp371
(dp372
g20
(dp373
sbsbsg0
(g50
g2
Ntp374
Rp375
(dp376
g20
S'from_min'
p377
sbg0
(g233
g2
Ntp378
Rp379
(dp380
g83
g0
(g60
g2
Ntp381
Rp382
(dp383
g20
I1
sbsg88
g0
(g60
g2
Ntp384
Rp385
(dp386
g20
I1
sbsg59
g0
(g60
g2
Ntp387
Rp388
(dp389
g20
I1
sbsg95
g0
(g96
g2
Ntp390
Rp391
(dp392
g20
I00
sbsg64
g375
sg65
g142
sg249
g0
(g60
g2
Ntp393
Rp394
(dp395
g20
I0
sbsg66
g0
(g16
g2
Ntp396
Rp397
(dp398
g20
(dp399
sbsg184
g0
(g203
g2
Ntp400
Rp401
(dp402
g189
g0
(g22
g2
Ntp403
Rp404
(dp405
g20
g263
sbsbsg224
g0
(g16
g2
Ntp406
Rp407
(dp408
g20
(dp409
sbsg268
g0
(g279
g2
Ntp410
Rp411
sg285
g0
(g16
g2
Ntp412
Rp413
(dp414
g20
(dp415
sbsbsg0
(g50
g2
Ntp416
Rp417
(dp418
g20
S'from_port'
p419
sbg0
(g233
g2
Ntp420
Rp421
(dp422
g83
g0
(g60
g2
Ntp423
Rp424
(dp425
g20
I1
sbsg88
g0
(g60
g2
Ntp426
Rp427
(dp428
g20
I1
sbsg59
g0
(g60
g2
Ntp429
Rp430
(dp431
g20
I1
sbsg95
g0
(g96
g2
Ntp432
Rp433
(dp434
g20
I00
sbsg64
g417
sg65
g142
sg249
g0
(g50
g2
Ntp435
Rp436
(dp437
g20
g312
sbsg66
g0
(g16
g2
Ntp438
Rp439
(dp440
g20
(dp441
sbsg184
g0
(g203
g2
Ntp442
Rp443
(dp444
g189
g0
(g22
g2
Ntp445
Rp446
(dp447
g20
g263
sbsbsg224
g0
(g16
g2
Ntp448
Rp449
(dp450
g20
(dp451
sbsg268
g0
(g327
g2
Ntp452
Rp453
sg285
g0
(g16
g2
Ntp454
Rp455
(dp456
g20
(dp457
sbsbsg0
(g50
g2
Ntp458
Rp459
(dp460
g20
S'to_min'
p461
sbg0
(g233
g2
Ntp462
Rp463
(dp464
g83
g0
(g60
g2
Ntp465
Rp466
(dp467
g20
I1
sbsg88
g0
(g60
g2
Ntp468
Rp469
(dp470
g20
I1
sbsg59
g0
(g60
g2
Ntp471
Rp472
(dp473
g20
I1
sbsg95
g0
(g96
g2
Ntp474
Rp475
(dp476
g20
I00
sbsg64
g459
sg65
g142
sg249
g0
(g60
g2
Ntp477
Rp478
(dp479
g20
I0
sbsg66
g0
(g16
g2
Ntp480
Rp481
(dp482
g20
(dp483
sbsg184
g0
(g203
g2
Ntp484
Rp485
(dp486
g189
g0
(g22
g2
Ntp487
Rp488
(dp489
g20
g193
sbsbsg224
g0
(g16
g2
Ntp490
Rp491
(dp492
g20
(dp493
sbsg268
g0
(g279
g2
Ntp494
Rp495
sg285
g0
(g16
g2
Ntp496
Rp497
(dp498
g20
(dp499
sbsbssbsS'specialiseclasses'
p500
g0
(g16
g2
Ntp501
Rp502
(dp503
g20
(dp504
sbsg285
g0
(g16
g2
Ntp505
Rp506
(dp507
g20
(dp508
g0
(g22
g2
Ntp509
Rp510
(dp511
g20
S'protected.formalisms.SimpleClassDiagrams.a_i_c'
p512
sbg0
(cmvk.impl.python.object
Inherits
p513
g2
Ntp514
Rp515
(dp516
g83
g0
(g84
g2
Ntp517
Rp518
(dp519
g20
Finf
sbsg88
g0
(g60
g2
Ntp520
Rp521
(dp522
g20
I0
sbsg59
g0
(g60
g2
Ntp523
Rp524
(dp525
g20
I0
sbsg95
g0
(g96
g2
Ntp526
Rp527
(dp528
g20
I00
sbsg64
g0
(g50
g2
Ntp529
Rp530
(dp531
g20
S'a_i_c'
p532
sbsg65
g57
sg104
g0
(g105
g2
Ntp533
Rp534
(dp535
g109
g142
sg83
g0
(g84
g2
Ntp536
Rp537
(dp538
g20
Finf
sbsg88
g0
(g60
g2
Ntp539
Rp540
(dp541
g20
I0
sbsg172
Nsg95
g0
(g96
g2
Ntp542
Rp543
(dp544
g20
I00
sbsbsg207
g0
(g105
g2
Ntp545
Rp546
(dp547
g109
g112
sg83
g0
(g84
g2
Ntp548
Rp549
(dp550
g20
Finf
sbsg88
g0
(g60
g2
Ntp551
Rp552
(dp553
g20
I0
sbsg172
Nsg95
g0
(g96
g2
Ntp554
Rp555
(dp556
g20
I00
sbsbsg66
g0
(g16
g2
Ntp557
Rp558
(dp559
g20
(dp560
sbsg184
g0
(g185
g2
Ntp561
Rp562
(dp563
g189
g0
(g22
g2
Ntp564
Rp565
(dp566
g20
S'mvk.object.Inherits'
p567
sbsbsg194
g0
(g16
g2
Ntp568
Rp569
(dp570
g20
(dp571
sbsg500
g0
(g16
g2
Ntp572
Rp573
(dp574
g20
(dp575
sbsg224
g0
(g16
g2
Ntp576
Rp577
(dp578
g20
(dp579
sbsg285
g0
(g16
g2
Ntp580
Rp581
(dp582
g20
(dp583
sbsbssbsbsg0
(g22
g2
Ntp584
Rp585
(dp586
g20
S'protected.formalisms.SimpleClassDiagrams.a_i_c'
p587
sbg515
sg0
(g22
g2
Ntp588
Rp589
(dp590
g20
S'protected.formalisms.SimpleClassDiagrams.Inheritance'
p591
sbg81
ssbsg184
g0
(g203
g2
Ntp592
Rp593
(dp594
g189
g0
(g22
g2
Ntp595
Rp596
(dp597
g20
S'mvk.object.Clabject'
p598
sbsbsg194
g0
(g16
g2
Ntp599
Rp600
(dp601
g20
(dp602
sbsg500
g0
(g16
g2
Ntp603
Rp604
(dp605
g20
(dp606
g0
(g22
g2
Ntp607
Rp608
(dp609
g20
S'protected.formalisms.SimpleClassDiagrams.Association'
p610
sbg142
ssbsg224
g0
(g16
g2
Ntp611
Rp612
(dp613
g20
(dp614
g0
(g50
g2
Ntp615
Rp616
(dp617
g20
S'is_abstract'
p618
sbg0
(g233
g2
Ntp619
Rp620
(dp621
g83
g0
(g60
g2
Ntp622
Rp623
(dp624
g20
I1
sbsg88
g0
(g60
g2
Ntp625
Rp626
(dp627
g20
I1
sbsg59
g0
(g60
g2
Ntp628
Rp629
(dp630
g20
I1
sbsg95
g0
(g96
g2
Ntp631
Rp632
(dp633
g20
I00
sbsg64
g616
sg65
g112
sg249
g0
(g96
g2
Ntp634
Rp635
(dp636
g20
I00
sbsg66
g0
(g16
g2
Ntp637
Rp638
(dp639
g20
(dp640
sbsg184
g0
(g203
g2
Ntp641
Rp642
(dp643
g189
g0
(g22
g2
Ntp644
Rp645
(dp646
g20
g263
sbsbsg224
g0
(g16
g2
Ntp647
Rp648
(dp649
g20
(dp650
sbsg268
g0
(cmvk.impl.python.datatype
BooleanType
p651
g2
Ntp652
Rp653
sg285
g0
(g16
g2
Ntp654
Rp655
(dp656
g20
(dp657
sbsbsg0
(g50
g2
Ntp658
Rp659
(dp660
g20
S'name'
p661
sbg0
(g233
g2
Ntp662
Rp663
(dp664
g83
g0
(g60
g2
Ntp665
Rp666
(dp667
g20
I1
sbsg88
g0
(g60
g2
Ntp668
Rp669
(dp670
g20
I1
sbsg59
g0
(g60
g2
Ntp671
Rp672
(dp673
g20
I1
sbsg95
g0
(g96
g2
Ntp674
Rp675
(dp676
g20
I00
sbsg64
g659
sg65
g112
sg249
g0
(g50
g2
Ntp677
Rp678
(dp679
g20
g312
sbsg66
g0
(g16
g2
Ntp680
Rp681
(dp682
g20
(dp683
sbsg184
g0
(g203
g2
Ntp684
Rp685
(dp686
g189
g0
(g22
g2
Ntp687
Rp688
(dp689
g20
g263
sbsbsg224
g0
(g16
g2
Ntp690
Rp691
(dp692
g20
(dp693
sbsg268
g0
(g327
g2
Ntp694
Rp695
sg285
g0
(g16
g2
Ntp696
Rp697
(dp698
g20
(dp699
sbsbsg0
(g50
g2
Ntp700
Rp701
(dp702
g20
S'id_field'
p703
sbg0
(g233
g2
Ntp704
Rp705
(dp706
g83
g0
(g60
g2
Ntp707
Rp708
(dp709
g20
I1
sbsg88
g0
(g60
g2
Ntp710
Rp711
(dp712
g20
I0
sbsg59
g0
(g60
g2
Ntp713
Rp714
(dp715
g20
I1
sbsg95
g0
(g96
g2
Ntp716
Rp717
(dp718
g20
I00
sbsg64
g701
sg65
g112
sg249
g0
(g50
g2
Ntp719
Rp720
(dp721
g20
g312
sbsg66
g0
(g16
g2
Ntp722
Rp723
(dp724
g20
(dp725
sbsg184
g0
(g203
g2
Ntp726
Rp727
(dp728
g189
g0
(g22
g2
Ntp729
Rp730
(dp731
g20
g263
sbsbsg224
g0
(g16
g2
Ntp732
Rp733
(dp734
g20
(dp735
sbsg268
g0
(g327
g2
Ntp736
Rp737
sg285
g0
(g16
g2
Ntp738
Rp739
(dp740
g20
(dp741
sbsbssbsg285
g0
(g16
g2
Ntp742
Rp743
(dp744
g20
(dp745
g0
(g22
g2
Ntp746
Rp747
(dp748
g20
S'protected.formalisms.SimpleClassDiagrams.Association'
p749
sbg142
sg0
(g22
g2
Ntp750
Rp751
(dp752
g20
S'protected.formalisms.SimpleClassDiagrams.Inheritance'
p753
sbg81
sg0
(g22
g2
Ntp754
Rp755
(dp756
g20
S'protected.formalisms.SimpleClassDiagrams.attributes'
p757
sbg0
(cmvk.impl.python.object
Composition
p758
g2
Ntp759
Rp760
(dp761
g83
g0
(g84
g2
Ntp762
Rp763
(dp764
g20
Finf
sbsg88
g0
(g60
g2
Ntp765
Rp766
(dp767
g20
I0
sbsg59
g0
(g60
g2
Ntp768
Rp769
(dp770
g20
I1
sbsg95
g0
(g96
g2
Ntp771
Rp772
(dp773
g20
I00
sbsg64
g0
(g50
g2
Ntp774
Rp775
(dp776
g20
S'attributes'
p777
sbsg65
g57
sg100
g0
(g96
g2
Ntp778
Rp779
(dp780
g20
I00
sbsg104
g0
(g105
g2
Ntp781
Rp782
(dp783
g109
g112
sg83
g0
(g60
g2
Ntp784
Rp785
(dp786
g20
I1
sbsg88
g0
(g60
g2
Ntp787
Rp788
(dp789
g20
I1
sbsg172
g0
(g50
g2
Ntp790
Rp791
(dp792
g20
g176
sbsg95
g0
(g96
g2
Ntp793
Rp794
(dp795
g20
I00
sbsbsg66
g0
(g16
g2
Ntp796
Rp797
(dp798
g20
(dp799
sbsg184
g0
(g185
g2
Ntp800
Rp801
(dp802
g189
g0
(g22
g2
Ntp803
Rp804
(dp805
g20
g193
sbsbsg194
g0
(g16
g2
Ntp806
Rp807
(dp808
g20
(dp809
sbsg207
g0
(g105
g2
Ntp810
Rp811
(dp812
g109
g0
(g110
g2
Ntp813
Rp814
(dp815
g83
g0
(g84
g2
Ntp816
Rp817
(dp818
g20
Finf
sbsg88
g0
(g60
g2
Ntp819
Rp820
(dp821
g20
I0
sbsg59
g0
(g60
g2
Ntp822
Rp823
(dp824
g20
I1
sbsg95
g0
(g96
g2
Ntp825
Rp826
(dp827
g20
I00
sbsg64
g0
(g50
g2
Ntp828
Rp829
(dp830
g20
S'Attribute'
p831
sbsg65
g57
sg100
g0
(g96
g2
Ntp832
Rp833
(dp834
g20
I00
sbsg66
g0
(g16
g2
Ntp835
Rp836
(dp837
g20
(dp838
g0
(g22
g2
Ntp839
Rp840
(dp841
g20
S'protected.formalisms.SimpleClassDiagrams.attributes'
p842
sbg760
ssbsg184
g0
(g203
g2
Ntp843
Rp844
(dp845
g189
g0
(g22
g2
Ntp846
Rp847
(dp848
g20
g598
sbsbsg194
g0
(g16
g2
Ntp849
Rp850
(dp851
g20
(dp852
sbsg500
g0
(g16
g2
Ntp853
Rp854
(dp855
g20
(dp856
sbsg224
g0
(g16
g2
Ntp857
Rp858
(dp859
g20
(dp860
g0
(g50
g2
Ntp861
Rp862
(dp863
g20
S'default'
p864
sbg0
(g233
g2
Ntp865
Rp866
(dp867
g83
g0
(g60
g2
Ntp868
Rp869
(dp870
g20
I1
sbsg88
g0
(g60
g2
Ntp871
Rp872
(dp873
g20
I1
sbsg59
g0
(g60
g2
Ntp874
Rp875
(dp876
g20
I1
sbsg95
g0
(g96
g2
Ntp877
Rp878
(dp879
g20
I00
sbsg64
g862
sg65
g814
sg249
g0
(cmvk.impl.python.datavalue
AnyValue
p880
g2
Ntp881
Rp882
(dp883
g20
Nsbsg66
g0
(g16
g2
Ntp884
Rp885
(dp886
g20
(dp887
sbsg184
g0
(g203
g2
Ntp888
Rp889
(dp890
g189
g0
(g22
g2
Ntp891
Rp892
(dp893
g20
g263
sbsbsg224
g0
(g16
g2
Ntp894
Rp895
(dp896
g20
(dp897
sbsg268
g0
(cmvk.impl.python.datatype
AnyType
p898
g2
Ntp899
Rp900
sg285
g0
(g16
g2
Ntp901
Rp902
(dp903
g20
(dp904
sbsbsg0
(g50
g2
Ntp905
Rp906
(dp907
g20
S'type'
p908
sbg0
(g233
g2
Ntp909
Rp910
(dp911
g83
g0
(g60
g2
Ntp912
Rp913
(dp914
g20
I1
sbsg88
g0
(g60
g2
Ntp915
Rp916
(dp917
g20
I1
sbsg59
g0
(g60
g2
Ntp918
Rp919
(dp920
g20
I1
sbsg95
g0
(g96
g2
Ntp921
Rp922
(dp923
g20
I00
sbsg64
g906
sg65
g814
sg249
g0
(g898
g2
Ntp924
Rp925
sg66
g0
(g16
g2
Ntp926
Rp927
(dp928
g20
(dp929
sbsg184
g0
(g203
g2
Ntp930
Rp931
(dp932
g189
g0
(g22
g2
Ntp933
Rp934
(dp935
g20
g263
sbsbsg224
g0
(g16
g2
Ntp936
Rp937
(dp938
g20
(dp939
sbsg268
g0
(cmvk.impl.python.datatype
TypeType
p940
g2
Ntp941
Rp942
sg285
g0
(g16
g2
Ntp943
Rp944
(dp945
g20
(dp946
sbsbsg0
(g50
g2
Ntp947
Rp948
(dp949
g20
g661
sbg0
(g233
g2
Ntp950
Rp951
(dp952
g83
g0
(g60
g2
Ntp953
Rp954
(dp955
g20
I1
sbsg88
g0
(g60
g2
Ntp956
Rp957
(dp958
g20
I1
sbsg59
g0
(g60
g2
Ntp959
Rp960
(dp961
g20
I1
sbsg95
g0
(g96
g2
Ntp962
Rp963
(dp964
g20
I00
sbsg64
g948
sg65
g814
sg249
g0
(g50
g2
Ntp965
Rp966
(dp967
g20
g312
sbsg66
g0
(g16
g2
Ntp968
Rp969
(dp970
g20
(dp971
sbsg184
g0
(g203
g2
Ntp972
Rp973
(dp974
g189
g0
(g22
g2
Ntp975
Rp976
(dp977
g20
g263
sbsbsg224
g0
(g16
g2
Ntp978
Rp979
(dp980
g20
(dp981
sbsg268
g0
(g327
g2
Ntp982
Rp983
sg285
g0
(g16
g2
Ntp984
Rp985
(dp986
g20
(dp987
sbsbssbsg285
g0
(g16
g2
Ntp988
Rp989
(dp990
g20
(dp991
sbsbsg83
g0
(g84
g2
Ntp992
Rp993
(dp994
g20
Finf
sbsg88
g0
(g60
g2
Ntp995
Rp996
(dp997
g20
I0
sbsg172
g0
(g50
g2
Ntp998
Rp999
(dp1000
g20
S'to_attr'
p1001
sbsg95
g0
(g96
g2
Ntp1002
Rp1003
(dp1004
g20
I00
sbsbsg224
g0
(g16
g2
Ntp1005
Rp1006
(dp1007
g20
(dp1008
g0
(g50
g2
Ntp1009
Rp1010
(dp1011
g20
g661
sbg0
(g233
g2
Ntp1012
Rp1013
(dp1014
g83
g0
(g60
g2
Ntp1015
Rp1016
(dp1017
g20
I1
sbsg88
g0
(g60
g2
Ntp1018
Rp1019
(dp1020
g20
I1
sbsg59
g0
(g60
g2
Ntp1021
Rp1022
(dp1023
g20
I1
sbsg95
g0
(g96
g2
Ntp1024
Rp1025
(dp1026
g20
I00
sbsg64
g1010
sg65
g760
sg249
g0
(g50
g2
Ntp1027
Rp1028
(dp1029
g20
g312
sbsg66
g0
(g16
g2
Ntp1030
Rp1031
(dp1032
g20
(dp1033
sbsg184
g0
(g203
g2
Ntp1034
Rp1035
(dp1036
g189
g0
(g22
g2
Ntp1037
Rp1038
(dp1039
g20
g263
sbsbsg224
g0
(g16
g2
Ntp1040
Rp1041
(dp1042
g20
(dp1043
sbsg268
g0
(g327
g2
Ntp1044
Rp1045
sg285
g0
(g16
g2
Ntp1046
Rp1047
(dp1048
g20
(dp1049
sbsbssbsg500
g0
(g16
g2
Ntp1050
Rp1051
(dp1052
g20
(dp1053
sbsg285
g0
(g16
g2
Ntp1054
Rp1055
(dp1056
g20
(dp1057
sbsbssbsbsg83
g0
(g84
g2
Ntp1058
Rp1059
(dp1060
g20
Finf
sbsg88
g0
(g60
g2
Ntp1061
Rp1062
(dp1063
g20
I0
sbsg172
g0
(g50
g2
Ntp1064
Rp1065
(dp1066
g20
g176
sbsg95
g0
(g96
g2
Ntp1067
Rp1068
(dp1069
g20
I00
sbsbsg66
g0
(g16
g2
Ntp1070
Rp1071
(dp1072
g20
(dp1073
sbsg184
g0
(g185
g2
Ntp1074
Rp1075
(dp1076
g189
g0
(g22
g2
Ntp1077
Rp1078
(dp1079
g20
g193
sbsbsg194
g0
(g16
g2
Ntp1080
Rp1081
(dp1082
g20
(dp1083
sbsg207
g0
(g105
g2
Ntp1084
Rp1085
(dp1086
g109
g112
sg83
g0
(g84
g2
Ntp1087
Rp1088
(dp1089
g20
Finf
sbsg88
g0
(g60
g2
Ntp1090
Rp1091
(dp1092
g20
I0
sbsg172
g0
(g50
g2
Ntp1093
Rp1094
(dp1095
g20
g220
sbsg95
g0
(g96
g2
Ntp1096
Rp1097
(dp1098
g20
I00
sbsbsg224
g0
(g16
g2
Ntp1099
Rp1100
(dp1101
g20
(dp1102
g0
(g50
g2
Ntp1103
Rp1104
(dp1105
g20
g661
sbg0
(g233
g2
Ntp1106
Rp1107
(dp1108
g83
g0
(g60
g2
Ntp1109
Rp1110
(dp1111
g20
I1
sbsg88
g0
(g60
g2
Ntp1112
Rp1113
(dp1114
g20
I1
sbsg59
g0
(g60
g2
Ntp1115
Rp1116
(dp1117
g20
I1
sbsg95
g0
(g96
g2
Ntp1118
Rp1119
(dp1120
g20
I00
sbsg64
g1104
sg65
g81
sg249
g0
(g50
g2
Ntp1121
Rp1122
(dp1123
g20
g312
sbsg66
g0
(g16
g2
Ntp1124
Rp1125
(dp1126
g20
(dp1127
sbsg184
g0
(g203
g2
Ntp1128
Rp1129
(dp1130
g189
g0
(g22
g2
Ntp1131
Rp1132
(dp1133
g20
g263
sbsbsg224
g0
(g16
g2
Ntp1134
Rp1135
(dp1136
g20
(dp1137
sbsg268
g0
(g327
g2
Ntp1138
Rp1139
sg285
g0
(g16
g2
Ntp1140
Rp1141
(dp1142
g20
(dp1143
sbsbssbsg500
g0
(g16
g2
Ntp1144
Rp1145
(dp1146
g20
(dp1147
sbsg285
g0
(g16
g2
Ntp1148
Rp1149
(dp1150
g20
(dp1151
sbsbsg829
g814
sg157
g142
sg775
g760
sg127
g112
sg530
g515
ssbsg224
g0
(g16
g2
Ntp1152
Rp1153
(dp1154
g20
(dp1155
g0
(g50
g2
Ntp1156
Rp1157
(dp1158
g20
g661
sbg0
(g233
g2
Ntp1159
Rp1160
(dp1161
g83
g0
(g60
g2
Ntp1162
Rp1163
(dp1164
g20
I1
sbsg88
g0
(g60
g2
Ntp1165
Rp1166
(dp1167
g20
I1
sbsg59
g0
(g60
g2
Ntp1168
Rp1169
(dp1170
g20
I1
sbsg95
g0
(g96
g2
Ntp1171
Rp1172
(dp1173
g20
I00
sbsg64
g1157
sg65
g57
sg249
g0
(g50
g2
Ntp1174
Rp1175
(dp1176
g20
g312
sbsg66
g0
(g16
g2
Ntp1177
Rp1178
(dp1179
g20
(dp1180
sbsg184
g0
(g203
g2
Ntp1181
Rp1182
(dp1183
g189
g0
(g22
g2
Ntp1184
Rp1185
(dp1186
g20
g263
sbsbsg224
g0
(g16
g2
Ntp1187
Rp1188
(dp1189
g20
(dp1190
sbsg268
g0
(g327
g2
Ntp1191
Rp1192
sg285
g0
(g16
g2
Ntp1193
Rp1194
(dp1195
g20
(dp1196
sbsbssbsg11
g0
(g12
g2
Ntp1197
Rp1198
sg285
g0
(g16
g2
Ntp1199
Rp1200
(dp1201
g20
(dp1202
sbsg184
g0
(cmvk.impl.python.object
ModelReference
p1203
g2
Ntp1204
Rp1205
(dp1206
g189
g0
(g22
g2
Ntp1207
Rp1208
(dp1209
g20
S'mvk.object'
p1210
sbsbsbsg0
(g50
g2
Ntp1211
Rp1212
(dp1213
g20
S'Transformation'
p1214
sbg0
(g55
g2
Ntp1215
Rp1216
(dp1217
g59
g0
(g60
g2
Ntp1218
Rp1219
(dp1220
g20
I1
sbsg64
g1212
sg65
g42
sg66
g0
(g16
g2
Ntp1221
Rp1222
(dp1223
g20
(dp1224
sbsg15
g0
(g16
g2
Ntp1225
Rp1226
(dp1227
g20
(dp1228
g0
(g50
g2
Ntp1229
Rp1230
(dp1231
g20
S'Rule_a_id'
p1232
sbg0
(g758
g2
Ntp1233
Rp1234
(dp1235
g83
g0
(g84
g2
Ntp1236
Rp1237
(dp1238
g20
Finf
sbsg88
g0
(g60
g2
Ntp1239
Rp1240
(dp1241
g20
I0
sbsg59
g0
(g60
g2
Ntp1242
Rp1243
(dp1244
g20
I0
sbsg95
g0
(g96
g2
Ntp1245
Rp1246
(dp1247
g20
I00
sbsg64
g1230
sg65
g1216
sg104
g0
(g105
g2
Ntp1248
Rp1249
(dp1250
g109
g0
(g110
g2
Ntp1251
Rp1252
(dp1253
g83
g0
(g84
g2
Ntp1254
Rp1255
(dp1256
g20
Finf
sbsg88
g0
(g60
g2
Ntp1257
Rp1258
(dp1259
g20
I0
sbsg59
g0
(g60
g2
Ntp1260
Rp1261
(dp1262
g20
I1
sbsg95
g0
(g96
g2
Ntp1263
Rp1264
(dp1265
g20
I00
sbsg64
g0
(g50
g2
Ntp1266
Rp1267
(dp1268
g20
S'Rule'
p1269
sbsg65
g1216
sg100
g0
(g96
g2
Ntp1270
Rp1271
(dp1272
g20
I00
sbsg66
g0
(g16
g2
Ntp1273
Rp1274
(dp1275
g20
(dp1276
sbsg184
g0
(g203
g2
Ntp1277
Rp1278
(dp1279
g189
g0
(g22
g2
Ntp1280
Rp1281
(dp1282
g20
g202
sbsbsg194
g0
(g16
g2
Ntp1283
Rp1284
(dp1285
g20
(dp1286
sbsg500
g0
(g16
g2
Ntp1287
Rp1288
(dp1289
g20
(dp1290
sbsg224
g0
(g16
g2
Ntp1291
Rp1292
(dp1293
g20
(dp1294
g0
(g50
g2
Ntp1295
Rp1296
(dp1297
g20
S'id'
p1298
sbg0
(g233
g2
Ntp1299
Rp1300
(dp1301
g83
g0
(g60
g2
Ntp1302
Rp1303
(dp1304
g20
I1
sbsg88
g0
(g60
g2
Ntp1305
Rp1306
(dp1307
g20
I1
sbsg59
g0
(g60
g2
Ntp1308
Rp1309
(dp1310
g20
I1
sbsg95
g0
(g96
g2
Ntp1311
Rp1312
(dp1313
g20
I00
sbsg64
g1296
sg65
g1252
sg249
g0
(g50
g2
Ntp1314
Rp1315
(dp1316
g20
g312
sbsg66
g0
(g16
g2
Ntp1317
Rp1318
(dp1319
g20
(dp1320
g0
(g22
g2
Ntp1321
Rp1322
(dp1323
g20
S'protected.formalisms.Transformation.Rule_a_id'
p1324
sbg1234
ssbsg184
g0
(g203
g2
Ntp1325
Rp1326
(dp1327
g189
g0
(g22
g2
Ntp1328
Rp1329
(dp1330
g20
S'protected.formalisms.SimpleClassDiagrams.Attribute'
p1331
sbsbsg224
g0
(g16
g2
Ntp1332
Rp1333
(dp1334
g20
(dp1335
sbsg268
g0
(g327
g2
Ntp1336
Rp1337
sg285
g0
(g16
g2
Ntp1338
Rp1339
(dp1340
g20
(dp1341
sbsbsg0
(g50
g2
Ntp1342
Rp1343
(dp1344
g20
S'Class.name'
p1345
sbg0
(g233
g2
Ntp1346
Rp1347
(dp1348
g83
g0
(g60
g2
Ntp1349
Rp1350
(dp1351
g20
I1
sbsg88
g0
(g60
g2
Ntp1352
Rp1353
(dp1354
g20
I1
sbsg59
g0
(g60
g2
Ntp1355
Rp1356
(dp1357
g20
I0
sbsg95
g0
(g96
g2
Ntp1358
Rp1359
(dp1360
g20
I00
sbsg64
g1343
sg65
g1252
sg20
g1267
sg66
g0
(g16
g2
Ntp1361
Rp1362
(dp1363
g20
(dp1364
sbsg184
g663
sg224
g0
(g16
g2
Ntp1365
Rp1366
(dp1367
g20
(dp1368
sbsg268
g695
sg285
g0
(g16
g2
Ntp1369
Rp1370
(dp1371
g20
(dp1372
sbsbsg0
(g50
g2
Ntp1373
Rp1374
(dp1375
g20
S'Class.is_abstract'
p1376
sbg0
(g233
g2
Ntp1377
Rp1378
(dp1379
g83
g0
(g60
g2
Ntp1380
Rp1381
(dp1382
g20
I1
sbsg88
g0
(g60
g2
Ntp1383
Rp1384
(dp1385
g20
I1
sbsg59
g0
(g60
g2
Ntp1386
Rp1387
(dp1388
g20
I0
sbsg95
g0
(g96
g2
Ntp1389
Rp1390
(dp1391
g20
I00
sbsg64
g1374
sg65
g1252
sg20
g1271
sg66
g0
(g16
g2
Ntp1392
Rp1393
(dp1394
g20
(dp1395
sbsg184
g620
sg224
g0
(g16
g2
Ntp1396
Rp1397
(dp1398
g20
(dp1399
sbsg268
g653
sg285
g0
(g16
g2
Ntp1400
Rp1401
(dp1402
g20
(dp1403
sbsbsg0
(g50
g2
Ntp1404
Rp1405
(dp1406
g20
S'Class.id_field'
p1407
sbg0
(g233
g2
Ntp1408
Rp1409
(dp1410
g83
g0
(g60
g2
Ntp1411
Rp1412
(dp1413
g20
I1
sbsg88
g0
(g60
g2
Ntp1414
Rp1415
(dp1416
g20
I1
sbsg59
g0
(g60
g2
Ntp1417
Rp1418
(dp1419
g20
I0
sbsg95
g0
(g96
g2
Ntp1420
Rp1421
(dp1422
g20
I00
sbsg64
g1405
sg65
g1252
sg20
g0
(g50
g2
Ntp1423
Rp1424
(dp1425
g20
S'Rule.id'
p1426
sbsg66
g0
(g16
g2
Ntp1427
Rp1428
(dp1429
g20
(dp1430
sbsg184
g705
sg224
g0
(g16
g2
Ntp1431
Rp1432
(dp1433
g20
(dp1434
sbsg268
g737
sg285
g0
(g16
g2
Ntp1435
Rp1436
(dp1437
g20
(dp1438
sbsbsg0
(g50
g2
Ntp1439
Rp1440
(dp1441
g20
S'rule_loc'
p1442
sbg0
(g233
g2
Ntp1443
Rp1444
(dp1445
g83
g0
(g60
g2
Ntp1446
Rp1447
(dp1448
g20
I1
sbsg88
g0
(g60
g2
Ntp1449
Rp1450
(dp1451
g20
I1
sbsg59
g0
(g60
g2
Ntp1452
Rp1453
(dp1454
g20
I1
sbsg95
g0
(g96
g2
Ntp1455
Rp1456
(dp1457
g20
I00
sbsg64
g1440
sg65
g1252
sg249
g0
(g22
g2
Ntp1458
Rp1459
(dp1460
g20
g312
sbsg66
g0
(g16
g2
Ntp1461
Rp1462
(dp1463
g20
(dp1464
g0
(g22
g2
Ntp1465
Rp1466
(dp1467
g20
S'protected.formalisms.Transformation.Rule_a_rule_loc'
p1468
sbg0
(g758
g2
Ntp1469
Rp1470
(dp1471
g83
g0
(g84
g2
Ntp1472
Rp1473
(dp1474
g20
Finf
sbsg88
g0
(g60
g2
Ntp1475
Rp1476
(dp1477
g20
I0
sbsg59
g0
(g60
g2
Ntp1478
Rp1479
(dp1480
g20
I0
sbsg95
g0
(g96
g2
Ntp1481
Rp1482
(dp1483
g20
I00
sbsg64
g0
(g50
g2
Ntp1484
Rp1485
(dp1486
g20
S'Rule_a_rule_loc'
p1487
sbsg65
g1216
sg104
g0
(g105
g2
Ntp1488
Rp1489
(dp1490
g109
g1252
sg83
g0
(g84
g2
Ntp1491
Rp1492
(dp1493
g20
Finf
sbsg88
g0
(g60
g2
Ntp1494
Rp1495
(dp1496
g20
I0
sbsg172
g791
sg95
g0
(g96
g2
Ntp1497
Rp1498
(dp1499
g20
I00
sbsbsg207
g0
(g105
g2
Ntp1500
Rp1501
(dp1502
g109
g1444
sg83
g0
(g84
g2
Ntp1503
Rp1504
(dp1505
g20
Finf
sbsg88
g0
(g60
g2
Ntp1506
Rp1507
(dp1508
g20
I0
sbsg172
g999
sg95
g0
(g96
g2
Ntp1509
Rp1510
(dp1511
g20
I00
sbsbsg66
g0
(g16
g2
Ntp1512
Rp1513
(dp1514
g20
(dp1515
sbsg184
g0
(g185
g2
Ntp1516
Rp1517
(dp1518
g189
g0
(g22
g2
Ntp1519
Rp1520
(dp1521
g20
S'protected.formalisms.SimpleClassDiagrams.attributes'
p1522
sbsbsg194
g0
(g16
g2
Ntp1523
Rp1524
(dp1525
g20
(dp1526
sbsg500
g0
(g16
g2
Ntp1527
Rp1528
(dp1529
g20
(dp1530
sbsg224
g0
(g16
g2
Ntp1531
Rp1532
(dp1533
g20
(dp1534
g0
(g50
g2
Ntp1535
Rp1536
(dp1537
g20
S'attributes.name'
p1538
sbg0
(g233
g2
Ntp1539
Rp1540
(dp1541
g83
g0
(g60
g2
Ntp1542
Rp1543
(dp1544
g20
I1
sbsg88
g0
(g60
g2
Ntp1545
Rp1546
(dp1547
g20
I1
sbsg59
g0
(g60
g2
Ntp1548
Rp1549
(dp1550
g20
I0
sbsg95
g0
(g96
g2
Ntp1551
Rp1552
(dp1553
g20
I00
sbsg64
g1536
sg65
g1470
sg20
g1485
sg66
g0
(g16
g2
Ntp1554
Rp1555
(dp1556
g20
(dp1557
sbsg184
g1013
sg224
g0
(g16
g2
Ntp1558
Rp1559
(dp1560
g20
(dp1561
sbsg268
g1045
sg285
g0
(g16
g2
Ntp1562
Rp1563
(dp1564
g20
(dp1565
sbsbssbsg285
g0
(g16
g2
Ntp1566
Rp1567
(dp1568
g20
(dp1569
sbsbssbsg184
g0
(g203
g2
Ntp1570
Rp1571
(dp1572
g189
g0
(g22
g2
Ntp1573
Rp1574
(dp1575
g20
g1331
sbsbsg224
g0
(g16
g2
Ntp1576
Rp1577
(dp1578
g20
(dp1579
sbsg268
g0
(cmvk.impl.python.datatype
LocationType
p1580
g2
Ntp1581
Rp1582
sg285
g0
(g16
g2
Ntp1583
Rp1584
(dp1585
g20
(dp1586
sbsbssbsg285
g0
(g16
g2
Ntp1587
Rp1588
(dp1589
g20
(dp1590
g0
(g22
g2
Ntp1591
Rp1592
(dp1593
g20
S'protected.formalisms.Transformation.Rule_a_rule_loc'
p1594
sbg1470
sg0
(g22
g2
Ntp1595
Rp1596
(dp1597
g20
S'protected.formalisms.Transformation.Rule_a_id'
p1598
sbg1234
ssbsbsg83
g0
(g84
g2
Ntp1599
Rp1600
(dp1601
g20
Finf
sbsg88
g0
(g60
g2
Ntp1602
Rp1603
(dp1604
g20
I0
sbsg172
g791
sg95
g0
(g96
g2
Ntp1605
Rp1606
(dp1607
g20
I00
sbsbsg207
g0
(g105
g2
Ntp1608
Rp1609
(dp1610
g109
g1300
sg83
g0
(g84
g2
Ntp1611
Rp1612
(dp1613
g20
Finf
sbsg88
g0
(g60
g2
Ntp1614
Rp1615
(dp1616
g20
I0
sbsg172
g999
sg95
g0
(g96
g2
Ntp1617
Rp1618
(dp1619
g20
I00
sbsbsg66
g0
(g16
g2
Ntp1620
Rp1621
(dp1622
g20
(dp1623
sbsg184
g0
(g185
g2
Ntp1624
Rp1625
(dp1626
g189
g0
(g22
g2
Ntp1627
Rp1628
(dp1629
g20
g1522
sbsbsg194
g0
(g16
g2
Ntp1630
Rp1631
(dp1632
g20
(dp1633
sbsg500
g0
(g16
g2
Ntp1634
Rp1635
(dp1636
g20
(dp1637
sbsg224
g0
(g16
g2
Ntp1638
Rp1639
(dp1640
g20
(dp1641
g0
(g50
g2
Ntp1642
Rp1643
(dp1644
g20
S'attributes.name'
p1645
sbg0
(g233
g2
Ntp1646
Rp1647
(dp1648
g83
g0
(g60
g2
Ntp1649
Rp1650
(dp1651
g20
I1
sbsg88
g0
(g60
g2
Ntp1652
Rp1653
(dp1654
g20
I1
sbsg59
g0
(g60
g2
Ntp1655
Rp1656
(dp1657
g20
I0
sbsg95
g0
(g96
g2
Ntp1658
Rp1659
(dp1660
g20
I00
sbsg64
g1643
sg65
g1234
sg20
g1230
sg66
g0
(g16
g2
Ntp1661
Rp1662
(dp1663
g20
(dp1664
sbsg184
g1013
sg224
g0
(g16
g2
Ntp1665
Rp1666
(dp1667
g20
(dp1668
sbsg268
g1045
sg285
g0
(g16
g2
Ntp1669
Rp1670
(dp1671
g20
(dp1672
sbsbssbsg285
g0
(g16
g2
Ntp1673
Rp1674
(dp1675
g20
(dp1676
sbsbsg1267
g1252
sg1485
g1470
ssbsg224
g0
(g16
g2
Ntp1677
Rp1678
(dp1679
g20
(dp1680
g0
(g50
g2
Ntp1681
Rp1682
(dp1683
g20
S'SimpleClassDiagrams.name'
p1684
sbg0
(g233
g2
Ntp1685
Rp1686
(dp1687
g83
g0
(g60
g2
Ntp1688
Rp1689
(dp1690
g20
I1
sbsg88
g0
(g60
g2
Ntp1691
Rp1692
(dp1693
g20
I1
sbsg59
g0
(g60
g2
Ntp1694
Rp1695
(dp1696
g20
I0
sbsg95
g0
(g96
g2
Ntp1697
Rp1698
(dp1699
g20
I00
sbsg64
g1682
sg65
g1216
sg20
g1212
sg66
g0
(g16
g2
Ntp1700
Rp1701
(dp1702
g20
(dp1703
sbsg184
g1160
sg224
g0
(g16
g2
Ntp1704
Rp1705
(dp1706
g20
(dp1707
sbsg268
g1192
sg285
g0
(g16
g2
Ntp1708
Rp1709
(dp1710
g20
(dp1711
sbsbsg0
(g50
g2
Ntp1712
Rp1713
(dp1714
g20
g661
sbg0
(g233
g2
Ntp1715
Rp1716
(dp1717
g83
g0
(g60
g2
Ntp1718
Rp1719
(dp1720
g20
I1
sbsg88
g0
(g60
g2
Ntp1721
Rp1722
(dp1723
g20
I1
sbsg59
g0
(g60
g2
Ntp1724
Rp1725
(dp1726
g20
I1
sbsg95
g0
(g96
g2
Ntp1727
Rp1728
(dp1729
g20
I00
sbsg64
g1713
sg65
g1216
sg249
g0
(g50
g2
Ntp1730
Rp1731
(dp1732
g20
g312
sbsg66
g0
(g16
g2
Ntp1733
Rp1734
(dp1735
g20
(dp1736
sbsg184
g0
(g203
g2
Ntp1737
Rp1738
(dp1739
g189
g0
(g22
g2
Ntp1740
Rp1741
(dp1742
g20
S'mvk.object.Attribute'
p1743
sbsbsg224
g0
(g16
g2
Ntp1744
Rp1745
(dp1746
g20
(dp1747
sbsg268
g0
(g327
g2
Ntp1748
Rp1749
sg285
g0
(g16
g2
Ntp1750
Rp1751
(dp1752
g20
(dp1753
sbsbssbsg11
g0
(g12
g2
Ntp1754
Rp1755
sg285
g0
(g16
g2
Ntp1756
Rp1757
(dp1758
g20
(dp1759
sbsg184
g0
(g1203
g2
Ntp1760
Rp1761
(dp1762
g189
g0
(g22
g2
Ntp1763
Rp1764
(dp1765
g20
S'protected.formalisms.SimpleClassDiagrams'
p1766
sbsbsbsg0
(g50
g2
Ntp1767
Rp1768
(dp1769
g20
g1269
sbg0
(g55
g2
Ntp1770
Rp1771
(dp1772
g59
g0
(g60
g2
Ntp1773
Rp1774
(dp1775
g20
I1
sbsg64
g1768
sg65
g42
sg66
g0
(g16
g2
Ntp1776
Rp1777
(dp1778
g20
(dp1779
sbsg15
g0
(g16
g2
Ntp1780
Rp1781
(dp1782
g20
(dp1783
g0
(g50
g2
Ntp1784
Rp1785
(dp1786
g20
S'NAC'
p1787
sbg0
(g110
g2
Ntp1788
Rp1789
(dp1790
g83
g0
(g84
g2
Ntp1791
Rp1792
(dp1793
g20
Finf
sbsg88
g0
(g60
g2
Ntp1794
Rp1795
(dp1796
g20
I0
sbsg59
g0
(g60
g2
Ntp1797
Rp1798
(dp1799
g20
I1
sbsg95
g0
(g96
g2
Ntp1800
Rp1801
(dp1802
g20
I00
sbsg64
g1785
sg65
g1771
sg100
g0
(g96
g2
Ntp1803
Rp1804
(dp1805
g20
I00
sbsg66
g0
(g16
g2
Ntp1806
Rp1807
(dp1808
g20
(dp1809
sbsg184
g0
(g203
g2
Ntp1810
Rp1811
(dp1812
g189
g0
(g22
g2
Ntp1813
Rp1814
(dp1815
g20
g202
sbsbsg194
g0
(g16
g2
Ntp1816
Rp1817
(dp1818
g20
(dp1819
g0
(g22
g2
Ntp1820
Rp1821
(dp1822
g20
S'protected.formalisms.Rule.MTpre_Pattern'
p1823
sbg0
(g203
g2
Ntp1824
Rp1825
(dp1826
g189
g1821
sbssbsg500
g0
(g16
g2
Ntp1827
Rp1828
(dp1829
g20
(dp1830
sbsg224
g0
(g16
g2
Ntp1831
Rp1832
(dp1833
g20
(dp1834
g0
(g50
g2
Ntp1835
Rp1836
(dp1837
g20
S'Class.name'
p1838
sbg0
(g233
g2
Ntp1839
Rp1840
(dp1841
g83
g0
(g60
g2
Ntp1842
Rp1843
(dp1844
g20
I1
sbsg88
g0
(g60
g2
Ntp1845
Rp1846
(dp1847
g20
I1
sbsg59
g0
(g60
g2
Ntp1848
Rp1849
(dp1850
g20
I0
sbsg95
g0
(g96
g2
Ntp1851
Rp1852
(dp1853
g20
I00
sbsg64
g1836
sg65
g1789
sg20
g1785
sg66
g0
(g16
g2
Ntp1854
Rp1855
(dp1856
g20
(dp1857
sbsg184
g663
sg224
g0
(g16
g2
Ntp1858
Rp1859
(dp1860
g20
(dp1861
sbsg268
g695
sg285
g0
(g16
g2
Ntp1862
Rp1863
(dp1864
g20
(dp1865
sbsbsg0
(g50
g2
Ntp1866
Rp1867
(dp1868
g20
S'Class.is_abstract'
p1869
sbg0
(g233
g2
Ntp1870
Rp1871
(dp1872
g83
g0
(g60
g2
Ntp1873
Rp1874
(dp1875
g20
I1
sbsg88
g0
(g60
g2
Ntp1876
Rp1877
(dp1878
g20
I1
sbsg59
g0
(g60
g2
Ntp1879
Rp1880
(dp1881
g20
I0
sbsg95
g0
(g96
g2
Ntp1882
Rp1883
(dp1884
g20
I00
sbsg64
g1867
sg65
g1789
sg20
g1804
sg66
g0
(g16
g2
Ntp1885
Rp1886
(dp1887
g20
(dp1888
sbsg184
g620
sg224
g0
(g16
g2
Ntp1889
Rp1890
(dp1891
g20
(dp1892
sbsg268
g653
sg285
g0
(g16
g2
Ntp1893
Rp1894
(dp1895
g20
(dp1896
sbsbssbsg285
g0
(g16
g2
Ntp1897
Rp1898
(dp1899
g20
(dp1900
g0
(g22
g2
Ntp1901
Rp1902
(dp1903
g20
S'protected.formalisms.Rule.nac_i_pattern'
p1904
sbg0
(g513
g2
Ntp1905
Rp1906
(dp1907
g83
g0
(g84
g2
Ntp1908
Rp1909
(dp1910
g20
Finf
sbsg88
g0
(g60
g2
Ntp1911
Rp1912
(dp1913
g20
I0
sbsg59
g0
(g60
g2
Ntp1914
Rp1915
(dp1916
g20
I0
sbsg95
g0
(g96
g2
Ntp1917
Rp1918
(dp1919
g20
I00
sbsg64
g0
(g50
g2
Ntp1920
Rp1921
(dp1922
g20
S'nac_i_pattern'
p1923
sbsg65
g1771
sg104
g0
(g105
g2
Ntp1924
Rp1925
(dp1926
g109
g1789
sg83
g0
(g84
g2
Ntp1927
Rp1928
(dp1929
g20
Finf
sbsg88
g0
(g60
g2
Ntp1930
Rp1931
(dp1932
g20
I0
sbsg172
g1065
sg95
g0
(g96
g2
Ntp1933
Rp1934
(dp1935
g20
I00
sbsbsg207
g0
(g105
g2
Ntp1936
Rp1937
(dp1938
g109
g0
(g110
g2
Ntp1939
Rp1940
(dp1941
g83
g0
(g84
g2
Ntp1942
Rp1943
(dp1944
g20
Finf
sbsg88
g0
(g60
g2
Ntp1945
Rp1946
(dp1947
g20
I0
sbsg59
g0
(g60
g2
Ntp1948
Rp1949
(dp1950
g20
I1
sbsg95
g0
(g96
g2
Ntp1951
Rp1952
(dp1953
g20
I00
sbsg64
g0
(g50
g2
Ntp1954
Rp1955
(dp1956
g20
S'MTpre_Pattern'
p1957
sbsg65
g1771
sg100
g0
(g96
g2
Ntp1958
Rp1959
(dp1960
g20
I01
sbsg66
g0
(g16
g2
Ntp1961
Rp1962
(dp1963
g20
(dp1964
g0
(g22
g2
Ntp1965
Rp1966
(dp1967
g20
S'protected.formalisms.Rule.lhs_i_pattern'
p1968
sbg0
(g513
g2
Ntp1969
Rp1970
(dp1971
g83
g0
(g84
g2
Ntp1972
Rp1973
(dp1974
g20
Finf
sbsg88
g0
(g60
g2
Ntp1975
Rp1976
(dp1977
g20
I0
sbsg59
g0
(g60
g2
Ntp1978
Rp1979
(dp1980
g20
I0
sbsg95
g0
(g96
g2
Ntp1981
Rp1982
(dp1983
g20
I00
sbsg64
g0
(g50
g2
Ntp1984
Rp1985
(dp1986
g20
S'lhs_i_pattern'
p1987
sbsg65
g1771
sg104
g0
(g105
g2
Ntp1988
Rp1989
(dp1990
g109
g0
(g110
g2
Ntp1991
Rp1992
(dp1993
g83
g0
(g84
g2
Ntp1994
Rp1995
(dp1996
g20
Finf
sbsg88
g0
(g60
g2
Ntp1997
Rp1998
(dp1999
g20
I0
sbsg59
g0
(g60
g2
Ntp2000
Rp2001
(dp2002
g20
I1
sbsg95
g0
(g96
g2
Ntp2003
Rp2004
(dp2005
g20
I00
sbsg64
g0
(g50
g2
Ntp2006
Rp2007
(dp2008
g20
S'LHS'
p2009
sbsg65
g1771
sg100
g0
(g96
g2
Ntp2010
Rp2011
(dp2012
g20
I00
sbsg66
g0
(g16
g2
Ntp2013
Rp2014
(dp2015
g20
(dp2016
sbsg184
g0
(g203
g2
Ntp2017
Rp2018
(dp2019
g189
g0
(g22
g2
Ntp2020
Rp2021
(dp2022
g20
g202
sbsbsg194
g0
(g16
g2
Ntp2023
Rp2024
(dp2025
g20
(dp2026
g0
(g22
g2
Ntp2027
Rp2028
(dp2029
g20
g1823
sbg0
(g203
g2
Ntp2030
Rp2031
(dp2032
g189
g2028
sbssbsg500
g0
(g16
g2
Ntp2033
Rp2034
(dp2035
g20
(dp2036
sbsg224
g0
(g16
g2
Ntp2037
Rp2038
(dp2039
g20
(dp2040
g0
(g50
g2
Ntp2041
Rp2042
(dp2043
g20
S'Class.name'
p2044
sbg0
(g233
g2
Ntp2045
Rp2046
(dp2047
g83
g0
(g60
g2
Ntp2048
Rp2049
(dp2050
g20
I1
sbsg88
g0
(g60
g2
Ntp2051
Rp2052
(dp2053
g20
I1
sbsg59
g0
(g60
g2
Ntp2054
Rp2055
(dp2056
g20
I0
sbsg95
g0
(g96
g2
Ntp2057
Rp2058
(dp2059
g20
I00
sbsg64
g2042
sg65
g1992
sg20
g2007
sg66
g0
(g16
g2
Ntp2060
Rp2061
(dp2062
g20
(dp2063
sbsg184
g663
sg224
g0
(g16
g2
Ntp2064
Rp2065
(dp2066
g20
(dp2067
sbsg268
g695
sg285
g0
(g16
g2
Ntp2068
Rp2069
(dp2070
g20
(dp2071
sbsbsg0
(g50
g2
Ntp2072
Rp2073
(dp2074
g20
S'Class.is_abstract'
p2075
sbg0
(g233
g2
Ntp2076
Rp2077
(dp2078
g83
g0
(g60
g2
Ntp2079
Rp2080
(dp2081
g20
I1
sbsg88
g0
(g60
g2
Ntp2082
Rp2083
(dp2084
g20
I1
sbsg59
g0
(g60
g2
Ntp2085
Rp2086
(dp2087
g20
I0
sbsg95
g0
(g96
g2
Ntp2088
Rp2089
(dp2090
g20
I00
sbsg64
g2073
sg65
g1992
sg20
g2011
sg66
g0
(g16
g2
Ntp2091
Rp2092
(dp2093
g20
(dp2094
sbsg184
g620
sg224
g0
(g16
g2
Ntp2095
Rp2096
(dp2097
g20
(dp2098
sbsg268
g653
sg285
g0
(g16
g2
Ntp2099
Rp2100
(dp2101
g20
(dp2102
sbsbssbsg285
g0
(g16
g2
Ntp2103
Rp2104
(dp2105
g20
(dp2106
g0
(g22
g2
Ntp2107
Rp2108
(dp2109
g20
S'protected.formalisms.Rule.lhs_i_pattern'
p2110
sbg1970
ssbsbsg83
g0
(g84
g2
Ntp2111
Rp2112
(dp2113
g20
Finf
sbsg88
g0
(g60
g2
Ntp2114
Rp2115
(dp2116
g20
I0
sbsg172
g1065
sg95
g0
(g96
g2
Ntp2117
Rp2118
(dp2119
g20
I00
sbsbsg207
g0
(g105
g2
Ntp2120
Rp2121
(dp2122
g109
g1940
sg83
g0
(g84
g2
Ntp2123
Rp2124
(dp2125
g20
Finf
sbsg88
g0
(g60
g2
Ntp2126
Rp2127
(dp2128
g20
I0
sbsg172
g1094
sg95
g0
(g96
g2
Ntp2129
Rp2130
(dp2131
g20
I00
sbsbsg66
g0
(g16
g2
Ntp2132
Rp2133
(dp2134
g20
(dp2135
sbsg184
g0
(g185
g2
Ntp2136
Rp2137
(dp2138
g189
g0
(g22
g2
Ntp2139
Rp2140
(dp2141
g20
S'protected.formalisms.SimpleClassDiagrams.Inheritance'
p2142
sbsbsg194
g0
(g16
g2
Ntp2143
Rp2144
(dp2145
g20
(dp2146
sbsg500
g0
(g16
g2
Ntp2147
Rp2148
(dp2149
g20
(dp2150
sbsg224
g0
(g16
g2
Ntp2151
Rp2152
(dp2153
g20
(dp2154
g0
(g50
g2
Ntp2155
Rp2156
(dp2157
g20
S'Inheritance.name'
p2158
sbg0
(g233
g2
Ntp2159
Rp2160
(dp2161
g83
g0
(g60
g2
Ntp2162
Rp2163
(dp2164
g20
I1
sbsg88
g0
(g60
g2
Ntp2165
Rp2166
(dp2167
g20
I1
sbsg59
g0
(g60
g2
Ntp2168
Rp2169
(dp2170
g20
I0
sbsg95
g0
(g96
g2
Ntp2171
Rp2172
(dp2173
g20
I00
sbsg64
g2156
sg65
g1970
sg20
g1985
sg66
g0
(g16
g2
Ntp2174
Rp2175
(dp2176
g20
(dp2177
sbsg184
g1107
sg224
g0
(g16
g2
Ntp2178
Rp2179
(dp2180
g20
(dp2181
sbsg268
g1139
sg285
g0
(g16
g2
Ntp2182
Rp2183
(dp2184
g20
(dp2185
sbsbssbsg285
g0
(g16
g2
Ntp2186
Rp2187
(dp2188
g20
(dp2189
sbsbsg0
(g22
g2
Ntp2190
Rp2191
(dp2192
g20
S'protected.formalisms.Rule.nac_i_pattern'
p2193
sbg1906
ssbsg184
g0
(g203
g2
Ntp2194
Rp2195
(dp2196
g189
g0
(g22
g2
Ntp2197
Rp2198
(dp2199
g20
g202
sbsbsg194
g0
(g16
g2
Ntp2200
Rp2201
(dp2202
g20
(dp2203
sbsg500
g0
(g16
g2
Ntp2204
Rp2205
(dp2206
g20
(dp2207
g0
(g22
g2
Ntp2208
Rp2209
(dp2210
g20
S'protected.formalisms.Rule.NAC'
p2211
sbg1789
sg0
(g22
g2
Ntp2212
Rp2213
(dp2214
g20
S'protected.formalisms.Rule.LHS'
p2215
sbg1992
ssbsg224
g0
(g16
g2
Ntp2216
Rp2217
(dp2218
g20
(dp2219
g0
(g50
g2
Ntp2220
Rp2221
(dp2222
g20
S'pattern_name'
p2223
sbg0
(g233
g2
Ntp2224
Rp2225
(dp2226
g83
g0
(g60
g2
Ntp2227
Rp2228
(dp2229
g20
I1
sbsg88
g0
(g60
g2
Ntp2230
Rp2231
(dp2232
g20
I1
sbsg59
g0
(g60
g2
Ntp2233
Rp2234
(dp2235
g20
I1
sbsg95
g0
(g96
g2
Ntp2236
Rp2237
(dp2238
g20
I00
sbsg64
g2221
sg65
g1940
sg249
g0
(g50
g2
Ntp2239
Rp2240
(dp2241
g20
g312
sbsg66
g0
(g16
g2
Ntp2242
Rp2243
(dp2244
g20
(dp2245
g0
(g22
g2
Ntp2246
Rp2247
(dp2248
g20
S'protected.formalisms.Rule.MTpre_Pattern_a_pattern_name'
p2249
sbg0
(g758
g2
Ntp2250
Rp2251
(dp2252
g83
g0
(g84
g2
Ntp2253
Rp2254
(dp2255
g20
Finf
sbsg88
g0
(g60
g2
Ntp2256
Rp2257
(dp2258
g20
I0
sbsg59
g0
(g60
g2
Ntp2259
Rp2260
(dp2261
g20
I0
sbsg95
g0
(g96
g2
Ntp2262
Rp2263
(dp2264
g20
I00
sbsg64
g0
(g50
g2
Ntp2265
Rp2266
(dp2267
g20
S'MTpre_Pattern_a_pattern_name'
p2268
sbsg65
g1771
sg104
g0
(g105
g2
Ntp2269
Rp2270
(dp2271
g109
g1940
sg83
g0
(g84
g2
Ntp2272
Rp2273
(dp2274
g20
Finf
sbsg88
g0
(g60
g2
Ntp2275
Rp2276
(dp2277
g20
I0
sbsg172
g791
sg95
g0
(g96
g2
Ntp2278
Rp2279
(dp2280
g20
I00
sbsbsg207
g0
(g105
g2
Ntp2281
Rp2282
(dp2283
g109
g2225
sg83
g0
(g84
g2
Ntp2284
Rp2285
(dp2286
g20
Finf
sbsg88
g0
(g60
g2
Ntp2287
Rp2288
(dp2289
g20
I0
sbsg172
g999
sg95
g0
(g96
g2
Ntp2290
Rp2291
(dp2292
g20
I00
sbsbsg66
g0
(g16
g2
Ntp2293
Rp2294
(dp2295
g20
(dp2296
sbsg184
g0
(g185
g2
Ntp2297
Rp2298
(dp2299
g189
g0
(g22
g2
Ntp2300
Rp2301
(dp2302
g20
g1522
sbsbsg194
g0
(g16
g2
Ntp2303
Rp2304
(dp2305
g20
(dp2306
sbsg500
g0
(g16
g2
Ntp2307
Rp2308
(dp2309
g20
(dp2310
sbsg224
g0
(g16
g2
Ntp2311
Rp2312
(dp2313
g20
(dp2314
g0
(g50
g2
Ntp2315
Rp2316
(dp2317
g20
S'attributes.name'
p2318
sbg0
(g233
g2
Ntp2319
Rp2320
(dp2321
g83
g0
(g60
g2
Ntp2322
Rp2323
(dp2324
g20
I1
sbsg88
g0
(g60
g2
Ntp2325
Rp2326
(dp2327
g20
I1
sbsg59
g0
(g60
g2
Ntp2328
Rp2329
(dp2330
g20
I0
sbsg95
g0
(g96
g2
Ntp2331
Rp2332
(dp2333
g20
I00
sbsg64
g2316
sg65
g2251
sg20
g2266
sg66
g0
(g16
g2
Ntp2334
Rp2335
(dp2336
g20
(dp2337
sbsg184
g1013
sg224
g0
(g16
g2
Ntp2338
Rp2339
(dp2340
g20
(dp2341
sbsg268
g1045
sg285
g0
(g16
g2
Ntp2342
Rp2343
(dp2344
g20
(dp2345
sbsbssbsg285
g0
(g16
g2
Ntp2346
Rp2347
(dp2348
g20
(dp2349
sbsbssbsg184
g0
(g203
g2
Ntp2350
Rp2351
(dp2352
g189
g0
(g22
g2
Ntp2353
Rp2354
(dp2355
g20
g1331
sbsbsg224
g0
(g16
g2
Ntp2356
Rp2357
(dp2358
g20
(dp2359
sbsg268
g0
(g327
g2
Ntp2360
Rp2361
sg285
g0
(g16
g2
Ntp2362
Rp2363
(dp2364
g20
(dp2365
sbsbsg0
(g50
g2
Ntp2366
Rp2367
(dp2368
g20
S'Class.name'
p2369
sbg0
(g233
g2
Ntp2370
Rp2371
(dp2372
g83
g0
(g60
g2
Ntp2373
Rp2374
(dp2375
g20
I1
sbsg88
g0
(g60
g2
Ntp2376
Rp2377
(dp2378
g20
I1
sbsg59
g0
(g60
g2
Ntp2379
Rp2380
(dp2381
g20
I0
sbsg95
g0
(g96
g2
Ntp2382
Rp2383
(dp2384
g20
I00
sbsg64
g2367
sg65
g1940
sg20
g1955
sg66
g0
(g16
g2
Ntp2385
Rp2386
(dp2387
g20
(dp2388
sbsg184
g663
sg224
g0
(g16
g2
Ntp2389
Rp2390
(dp2391
g20
(dp2392
sbsg268
g695
sg285
g0
(g16
g2
Ntp2393
Rp2394
(dp2395
g20
(dp2396
sbsbsg0
(g50
g2
Ntp2397
Rp2398
(dp2399
g20
S'Class.is_abstract'
p2400
sbg0
(g233
g2
Ntp2401
Rp2402
(dp2403
g83
g0
(g60
g2
Ntp2404
Rp2405
(dp2406
g20
I1
sbsg88
g0
(g60
g2
Ntp2407
Rp2408
(dp2409
g20
I1
sbsg59
g0
(g60
g2
Ntp2410
Rp2411
(dp2412
g20
I0
sbsg95
g0
(g96
g2
Ntp2413
Rp2414
(dp2415
g20
I00
sbsg64
g2398
sg65
g1940
sg20
g1959
sg66
g0
(g16
g2
Ntp2416
Rp2417
(dp2418
g20
(dp2419
sbsg184
g620
sg224
g0
(g16
g2
Ntp2420
Rp2421
(dp2422
g20
(dp2423
sbsg268
g653
sg285
g0
(g16
g2
Ntp2424
Rp2425
(dp2426
g20
(dp2427
sbsbsg0
(g50
g2
Ntp2428
Rp2429
(dp2430
g20
S'Class.id_field'
p2431
sbg0
(g233
g2
Ntp2432
Rp2433
(dp2434
g83
g0
(g60
g2
Ntp2435
Rp2436
(dp2437
g20
I1
sbsg88
g0
(g60
g2
Ntp2438
Rp2439
(dp2440
g20
I1
sbsg59
g0
(g60
g2
Ntp2441
Rp2442
(dp2443
g20
I0
sbsg95
g0
(g96
g2
Ntp2444
Rp2445
(dp2446
g20
I00
sbsg64
g2429
sg65
g1940
sg20
g0
(g50
g2
Ntp2447
Rp2448
(dp2449
g20
S'MTpre_Pattern.pattern_name'
p2450
sbsg66
g0
(g16
g2
Ntp2451
Rp2452
(dp2453
g20
(dp2454
sbsg184
g705
sg224
g0
(g16
g2
Ntp2455
Rp2456
(dp2457
g20
(dp2458
sbsg268
g737
sg285
g0
(g16
g2
Ntp2459
Rp2460
(dp2461
g20
(dp2462
sbsbsg0
(g50
g2
Ntp2463
Rp2464
(dp2465
g20
S'MT_constraint'
p2466
sbg0
(g233
g2
Ntp2467
Rp2468
(dp2469
g83
g0
(g60
g2
Ntp2470
Rp2471
(dp2472
g20
I1
sbsg88
g0
(g60
g2
Ntp2473
Rp2474
(dp2475
g20
I1
sbsg59
g0
(g60
g2
Ntp2476
Rp2477
(dp2478
g20
I1
sbsg95
g0
(g96
g2
Ntp2479
Rp2480
(dp2481
g20
I00
sbsg64
g2464
sg65
g1940
sg249
g0
(g50
g2
Ntp2482
Rp2483
(dp2484
g20
S'True'
p2485
sbsg66
g0
(g16
g2
Ntp2486
Rp2487
(dp2488
g20
(dp2489
g0
(g22
g2
Ntp2490
Rp2491
(dp2492
g20
S'protected.formalisms.Rule.MTpre_Pattern_a_MT_constraint'
p2493
sbg0
(g758
g2
Ntp2494
Rp2495
(dp2496
g83
g0
(g84
g2
Ntp2497
Rp2498
(dp2499
g20
Finf
sbsg88
g0
(g60
g2
Ntp2500
Rp2501
(dp2502
g20
I0
sbsg59
g0
(g60
g2
Ntp2503
Rp2504
(dp2505
g20
I0
sbsg95
g0
(g96
g2
Ntp2506
Rp2507
(dp2508
g20
I00
sbsg64
g0
(g50
g2
Ntp2509
Rp2510
(dp2511
g20
S'MTpre_Pattern_a_MT_constraint'
p2512
sbsg65
g1771
sg104
g0
(g105
g2
Ntp2513
Rp2514
(dp2515
g109
g1940
sg83
g0
(g84
g2
Ntp2516
Rp2517
(dp2518
g20
Finf
sbsg88
g0
(g60
g2
Ntp2519
Rp2520
(dp2521
g20
I0
sbsg172
g791
sg95
g0
(g96
g2
Ntp2522
Rp2523
(dp2524
g20
I00
sbsbsg207
g0
(g105
g2
Ntp2525
Rp2526
(dp2527
g109
g2468
sg83
g0
(g84
g2
Ntp2528
Rp2529
(dp2530
g20
Finf
sbsg88
g0
(g60
g2
Ntp2531
Rp2532
(dp2533
g20
I0
sbsg172
g999
sg95
g0
(g96
g2
Ntp2534
Rp2535
(dp2536
g20
I00
sbsbsg66
g0
(g16
g2
Ntp2537
Rp2538
(dp2539
g20
(dp2540
sbsg184
g0
(g185
g2
Ntp2541
Rp2542
(dp2543
g189
g0
(g22
g2
Ntp2544
Rp2545
(dp2546
g20
g1522
sbsbsg194
g0
(g16
g2
Ntp2547
Rp2548
(dp2549
g20
(dp2550
sbsg500
g0
(g16
g2
Ntp2551
Rp2552
(dp2553
g20
(dp2554
sbsg224
g0
(g16
g2
Ntp2555
Rp2556
(dp2557
g20
(dp2558
g0
(g50
g2
Ntp2559
Rp2560
(dp2561
g20
S'attributes.name'
p2562
sbg0
(g233
g2
Ntp2563
Rp2564
(dp2565
g83
g0
(g60
g2
Ntp2566
Rp2567
(dp2568
g20
I1
sbsg88
g0
(g60
g2
Ntp2569
Rp2570
(dp2571
g20
I1
sbsg59
g0
(g60
g2
Ntp2572
Rp2573
(dp2574
g20
I0
sbsg95
g0
(g96
g2
Ntp2575
Rp2576
(dp2577
g20
I00
sbsg64
g2560
sg65
g2495
sg20
g2510
sg66
g0
(g16
g2
Ntp2578
Rp2579
(dp2580
g20
(dp2581
sbsg184
g1013
sg224
g0
(g16
g2
Ntp2582
Rp2583
(dp2584
g20
(dp2585
sbsg268
g1045
sg285
g0
(g16
g2
Ntp2586
Rp2587
(dp2588
g20
(dp2589
sbsbssbsg285
g0
(g16
g2
Ntp2590
Rp2591
(dp2592
g20
(dp2593
sbsbssbsg184
g0
(g203
g2
Ntp2594
Rp2595
(dp2596
g189
g0
(g22
g2
Ntp2597
Rp2598
(dp2599
g20
g1331
sbsbsg224
g0
(g16
g2
Ntp2600
Rp2601
(dp2602
g20
(dp2603
sbsg268
g2361
sg285
g0
(g16
g2
Ntp2604
Rp2605
(dp2606
g20
(dp2607
sbsbssbsg285
g0
(g16
g2
Ntp2608
Rp2609
(dp2610
g20
(dp2611
g0
(g22
g2
Ntp2612
Rp2613
(dp2614
g20
S'protected.formalisms.Rule.MTpre_Contents'
p2615
sbg0
(g79
g2
Ntp2616
Rp2617
(dp2618
g83
g0
(g84
g2
Ntp2619
Rp2620
(dp2621
g20
Finf
sbsg88
g0
(g60
g2
Ntp2622
Rp2623
(dp2624
g20
I0
sbsg59
g0
(g60
g2
Ntp2625
Rp2626
(dp2627
g20
I1
sbsg95
g0
(g96
g2
Ntp2628
Rp2629
(dp2630
g20
I00
sbsg64
g0
(g50
g2
Ntp2631
Rp2632
(dp2633
g20
S'MTpre_Contents'
p2634
sbsg65
g1771
sg100
g0
(g96
g2
Ntp2635
Rp2636
(dp2637
g20
I00
sbsg104
g0
(g105
g2
Ntp2638
Rp2639
(dp2640
g109
g1940
sg83
g0
(g84
g2
Ntp2641
Rp2642
(dp2643
g20
Finf
sbsg88
g0
(g60
g2
Ntp2644
Rp2645
(dp2646
g20
I0
sbsg172
g0
(g50
g2
Ntp2647
Rp2648
(dp2649
g20
S'from_pattern'
p2650
sbsg95
g0
(g96
g2
Ntp2651
Rp2652
(dp2653
g20
I00
sbsbsg66
g0
(g16
g2
Ntp2654
Rp2655
(dp2656
g20
(dp2657
sbsg184
g0
(g185
g2
Ntp2658
Rp2659
(dp2660
g189
g0
(g22
g2
Ntp2661
Rp2662
(dp2663
g20
S'protected.formalisms.SimpleClassDiagrams.Association'
p2664
sbsbsg194
g0
(g16
g2
Ntp2665
Rp2666
(dp2667
g20
(dp2668
sbsg207
g0
(g105
g2
Ntp2669
Rp2670
(dp2671
g109
g0
(g110
g2
Ntp2672
Rp2673
(dp2674
g83
g0
(g84
g2
Ntp2675
Rp2676
(dp2677
g20
Finf
sbsg88
g0
(g60
g2
Ntp2678
Rp2679
(dp2680
g20
I0
sbsg59
g0
(g60
g2
Ntp2681
Rp2682
(dp2683
g20
I1
sbsg95
g0
(g96
g2
Ntp2684
Rp2685
(dp2686
g20
I00
sbsg64
g0
(g50
g2
Ntp2687
Rp2688
(dp2689
g20
S'MTpre_Element'
p2690
sbsg65
g1771
sg100
g0
(g96
g2
Ntp2691
Rp2692
(dp2693
g20
I01
sbsg66
g0
(g16
g2
Ntp2694
Rp2695
(dp2696
g20
(dp2697
g0
(g22
g2
Ntp2698
Rp2699
(dp2700
g20
S'protected.formalisms.Rule.MTpre_Contents'
p2701
sbg2617
sg0
(g22
g2
Ntp2702
Rp2703
(dp2704
g20
S'protected.formalisms.Rule.MTpre_Association'
p2705
sbg0
(g79
g2
Ntp2706
Rp2707
(dp2708
g83
g0
(g84
g2
Ntp2709
Rp2710
(dp2711
g20
Finf
sbsg88
g0
(g60
g2
Ntp2712
Rp2713
(dp2714
g20
I0
sbsg59
g0
(g60
g2
Ntp2715
Rp2716
(dp2717
g20
I1
sbsg95
g0
(g96
g2
Ntp2718
Rp2719
(dp2720
g20
I00
sbsg64
g0
(g50
g2
Ntp2721
Rp2722
(dp2723
g20
S'MTpre_Association'
p2724
sbsg65
g1771
sg100
g0
(g96
g2
Ntp2725
Rp2726
(dp2727
g20
I01
sbsg104
g0
(g105
g2
Ntp2728
Rp2729
(dp2730
g109
g2673
sg83
g0
(g84
g2
Ntp2731
Rp2732
(dp2733
g20
Finf
sbsg88
g0
(g60
g2
Ntp2734
Rp2735
(dp2736
g20
I0
sbsg172
g0
(g50
g2
Ntp2737
Rp2738
(dp2739
g20
S'from_el'
p2740
sbsg95
g0
(g96
g2
Ntp2741
Rp2742
(dp2743
g20
I00
sbsbsg66
g0
(g16
g2
Ntp2744
Rp2745
(dp2746
g20
(dp2747
sbsg184
g0
(g185
g2
Ntp2748
Rp2749
(dp2750
g189
g0
(g22
g2
Ntp2751
Rp2752
(dp2753
g20
g2664
sbsbsg194
g0
(g16
g2
Ntp2754
Rp2755
(dp2756
g20
(dp2757
g0
(g22
g2
Ntp2758
Rp2759
(dp2760
g20
S'protected.formalisms.Rule.MT_Association'
p2761
sbg0
(g203
g2
Ntp2762
Rp2763
(dp2764
g189
g2759
sbssbsg207
g0
(g105
g2
Ntp2765
Rp2766
(dp2767
g109
g2673
sg83
g0
(g84
g2
Ntp2768
Rp2769
(dp2770
g20
Finf
sbsg88
g0
(g60
g2
Ntp2771
Rp2772
(dp2773
g20
I0
sbsg172
g0
(g50
g2
Ntp2774
Rp2775
(dp2776
g20
S'to_el'
p2777
sbsg95
g0
(g96
g2
Ntp2778
Rp2779
(dp2780
g20
I00
sbsbsg224
g0
(g16
g2
Ntp2781
Rp2782
(dp2783
g20
(dp2784
g0
(g50
g2
Ntp2785
Rp2786
(dp2787
g20
S'Association.to_min'
p2788
sbg0
(g233
g2
Ntp2789
Rp2790
(dp2791
g83
g0
(g60
g2
Ntp2792
Rp2793
(dp2794
g20
I1
sbsg88
g0
(g60
g2
Ntp2795
Rp2796
(dp2797
g20
I1
sbsg59
g0
(g60
g2
Ntp2798
Rp2799
(dp2800
g20
I0
sbsg95
g0
(g96
g2
Ntp2801
Rp2802
(dp2803
g20
I00
sbsg64
g2786
sg65
g2707
sg20
g2772
sg66
g0
(g16
g2
Ntp2804
Rp2805
(dp2806
g20
(dp2807
sbsg184
g463
sg224
g0
(g16
g2
Ntp2808
Rp2809
(dp2810
g20
(dp2811
sbsg268
g495
sg285
g0
(g16
g2
Ntp2812
Rp2813
(dp2814
g20
(dp2815
sbsbsg0
(g50
g2
Ntp2816
Rp2817
(dp2818
g20
S'Association.to_port'
p2819
sbg0
(g233
g2
Ntp2820
Rp2821
(dp2822
g83
g0
(g60
g2
Ntp2823
Rp2824
(dp2825
g20
I1
sbsg88
g0
(g60
g2
Ntp2826
Rp2827
(dp2828
g20
I1
sbsg59
g0
(g60
g2
Ntp2829
Rp2830
(dp2831
g20
I0
sbsg95
g0
(g96
g2
Ntp2832
Rp2833
(dp2834
g20
I00
sbsg64
g2817
sg65
g2707
sg20
g2775
sg66
g0
(g16
g2
Ntp2835
Rp2836
(dp2837
g20
(dp2838
sbsg184
g295
sg224
g0
(g16
g2
Ntp2839
Rp2840
(dp2841
g20
(dp2842
sbsg268
g329
sg285
g0
(g16
g2
Ntp2843
Rp2844
(dp2845
g20
(dp2846
sbsbsg0
(g50
g2
Ntp2847
Rp2848
(dp2849
g20
S'Association.from_port'
p2850
sbg0
(g233
g2
Ntp2851
Rp2852
(dp2853
g83
g0
(g60
g2
Ntp2854
Rp2855
(dp2856
g20
I1
sbsg88
g0
(g60
g2
Ntp2857
Rp2858
(dp2859
g20
I1
sbsg59
g0
(g60
g2
Ntp2860
Rp2861
(dp2862
g20
I0
sbsg95
g0
(g96
g2
Ntp2863
Rp2864
(dp2865
g20
I00
sbsg64
g2848
sg65
g2707
sg20
g2738
sg66
g0
(g16
g2
Ntp2866
Rp2867
(dp2868
g20
(dp2869
sbsg184
g421
sg224
g0
(g16
g2
Ntp2870
Rp2871
(dp2872
g20
(dp2873
sbsg268
g453
sg285
g0
(g16
g2
Ntp2874
Rp2875
(dp2876
g20
(dp2877
sbsbsg0
(g50
g2
Ntp2878
Rp2879
(dp2880
g20
S'Association.from_min'
p2881
sbg0
(g233
g2
Ntp2882
Rp2883
(dp2884
g83
g0
(g60
g2
Ntp2885
Rp2886
(dp2887
g20
I1
sbsg88
g0
(g60
g2
Ntp2888
Rp2889
(dp2890
g20
I1
sbsg59
g0
(g60
g2
Ntp2891
Rp2892
(dp2893
g20
I0
sbsg95
g0
(g96
g2
Ntp2894
Rp2895
(dp2896
g20
I00
sbsg64
g2879
sg65
g2707
sg20
g2735
sg66
g0
(g16
g2
Ntp2897
Rp2898
(dp2899
g20
(dp2900
sbsg184
g379
sg224
g0
(g16
g2
Ntp2901
Rp2902
(dp2903
g20
(dp2904
sbsg268
g411
sg285
g0
(g16
g2
Ntp2905
Rp2906
(dp2907
g20
(dp2908
sbsbsg0
(g50
g2
Ntp2909
Rp2910
(dp2911
g20
S'Class.name'
p2912
sbg0
(g233
g2
Ntp2913
Rp2914
(dp2915
g83
g0
(g60
g2
Ntp2916
Rp2917
(dp2918
g20
I1
sbsg88
g0
(g60
g2
Ntp2919
Rp2920
(dp2921
g20
I1
sbsg59
g0
(g60
g2
Ntp2922
Rp2923
(dp2924
g20
I0
sbsg95
g0
(g96
g2
Ntp2925
Rp2926
(dp2927
g20
I00
sbsg64
g2910
sg65
g2707
sg20
g2722
sg66
g0
(g16
g2
Ntp2928
Rp2929
(dp2930
g20
(dp2931
sbsg184
g663
sg224
g0
(g16
g2
Ntp2932
Rp2933
(dp2934
g20
(dp2935
sbsg268
g695
sg285
g0
(g16
g2
Ntp2936
Rp2937
(dp2938
g20
(dp2939
sbsbsg0
(g50
g2
Ntp2940
Rp2941
(dp2942
g20
S'Class.is_abstract'
p2943
sbg0
(g233
g2
Ntp2944
Rp2945
(dp2946
g83
g0
(g60
g2
Ntp2947
Rp2948
(dp2949
g20
I1
sbsg88
g0
(g60
g2
Ntp2950
Rp2951
(dp2952
g20
I1
sbsg59
g0
(g60
g2
Ntp2953
Rp2954
(dp2955
g20
I0
sbsg95
g0
(g96
g2
Ntp2956
Rp2957
(dp2958
g20
I00
sbsg64
g2941
sg65
g2707
sg20
g2726
sg66
g0
(g16
g2
Ntp2959
Rp2960
(dp2961
g20
(dp2962
sbsg184
g620
sg224
g0
(g16
g2
Ntp2963
Rp2964
(dp2965
g20
(dp2966
sbsg268
g653
sg285
g0
(g16
g2
Ntp2967
Rp2968
(dp2969
g20
(dp2970
sbsbsg0
(g50
g2
Ntp2971
Rp2972
(dp2973
g20
S'Association.to_max'
p2974
sbg0
(g233
g2
Ntp2975
Rp2976
(dp2977
g83
g0
(g60
g2
Ntp2978
Rp2979
(dp2980
g20
I1
sbsg88
g0
(g60
g2
Ntp2981
Rp2982
(dp2983
g20
I1
sbsg59
g0
(g60
g2
Ntp2984
Rp2985
(dp2986
g20
I0
sbsg95
g0
(g96
g2
Ntp2987
Rp2988
(dp2989
g20
I00
sbsg64
g2972
sg65
g2707
sg20
g2769
sg66
g0
(g16
g2
Ntp2990
Rp2991
(dp2992
g20
(dp2993
sbsg184
g339
sg224
g0
(g16
g2
Ntp2994
Rp2995
(dp2996
g20
(dp2997
sbsg268
g271
sg285
g0
(g16
g2
Ntp2998
Rp2999
(dp3000
g20
(dp3001
sbsbsg0
(g50
g2
Ntp3002
Rp3003
(dp3004
g20
S'Association.from_max'
p3005
sbg0
(g233
g2
Ntp3006
Rp3007
(dp3008
g83
g0
(g60
g2
Ntp3009
Rp3010
(dp3011
g20
I1
sbsg88
g0
(g60
g2
Ntp3012
Rp3013
(dp3014
g20
I1
sbsg59
g0
(g60
g2
Ntp3015
Rp3016
(dp3017
g20
I0
sbsg95
g0
(g96
g2
Ntp3018
Rp3019
(dp3020
g20
I00
sbsg64
g3003
sg65
g2707
sg20
g2732
sg66
g0
(g16
g2
Ntp3021
Rp3022
(dp3023
g20
(dp3024
sbsg184
g235
sg224
g0
(g16
g2
Ntp3025
Rp3026
(dp3027
g20
(dp3028
sbsg268
g271
sg285
g0
(g16
g2
Ntp3029
Rp3030
(dp3031
g20
(dp3032
sbsbssbsg500
g0
(g16
g2
Ntp3033
Rp3034
(dp3035
g20
(dp3036
sbsg285
g0
(g16
g2
Ntp3037
Rp3038
(dp3039
g20
(dp3040
g0
(g22
g2
Ntp3041
Rp3042
(dp3043
g20
S'protected.formalisms.Rule.pre_i_assoc'
p3044
sbg0
(g513
g2
Ntp3045
Rp3046
(dp3047
g83
g0
(g84
g2
Ntp3048
Rp3049
(dp3050
g20
Finf
sbsg88
g0
(g60
g2
Ntp3051
Rp3052
(dp3053
g20
I0
sbsg59
g0
(g60
g2
Ntp3054
Rp3055
(dp3056
g20
I0
sbsg95
g0
(g96
g2
Ntp3057
Rp3058
(dp3059
g20
I00
sbsg64
g0
(g50
g2
Ntp3060
Rp3061
(dp3062
g20
S'pre_i_assoc'
p3063
sbsg65
g1771
sg104
g0
(g105
g2
Ntp3064
Rp3065
(dp3066
g109
g2707
sg83
g0
(g84
g2
Ntp3067
Rp3068
(dp3069
g20
Finf
sbsg88
g0
(g60
g2
Ntp3070
Rp3071
(dp3072
g20
I0
sbsg172
g1065
sg95
g0
(g96
g2
Ntp3073
Rp3074
(dp3075
g20
I00
sbsbsg207
g0
(g105
g2
Ntp3076
Rp3077
(dp3078
g109
g0
(g79
g2
Ntp3079
Rp3080
(dp3081
g83
g0
(g84
g2
Ntp3082
Rp3083
(dp3084
g20
Finf
sbsg88
g0
(g60
g2
Ntp3085
Rp3086
(dp3087
g20
I0
sbsg59
g0
(g60
g2
Ntp3088
Rp3089
(dp3090
g20
I1
sbsg95
g0
(g96
g2
Ntp3091
Rp3092
(dp3093
g20
I00
sbsg64
g0
(g50
g2
Ntp3094
Rp3095
(dp3096
g20
S'MT_Association'
p3097
sbsg65
g1771
sg100
g0
(g96
g2
Ntp3098
Rp3099
(dp3100
g20
I01
sbsg104
g0
(g105
g2
Ntp3101
Rp3102
(dp3103
g109
g0
(g110
g2
Ntp3104
Rp3105
(dp3106
g83
g0
(g84
g2
Ntp3107
Rp3108
(dp3109
g20
Finf
sbsg88
g0
(g60
g2
Ntp3110
Rp3111
(dp3112
g20
I0
sbsg59
g0
(g60
g2
Ntp3113
Rp3114
(dp3115
g20
I1
sbsg95
g0
(g96
g2
Ntp3116
Rp3117
(dp3118
g20
I00
sbsg64
g0
(g50
g2
Ntp3119
Rp3120
(dp3121
g20
S'MT_Element'
p3122
sbsg65
g1771
sg100
g0
(g96
g2
Ntp3123
Rp3124
(dp3125
g20
I01
sbsg66
g0
(g16
g2
Ntp3126
Rp3127
(dp3128
g20
(dp3129
g0
(g22
g2
Ntp3130
Rp3131
(dp3132
g20
S'protected.formalisms.Rule.pre_i_el'
p3133
sbg0
(g513
g2
Ntp3134
Rp3135
(dp3136
g83
g0
(g84
g2
Ntp3137
Rp3138
(dp3139
g20
Finf
sbsg88
g0
(g60
g2
Ntp3140
Rp3141
(dp3142
g20
I0
sbsg59
g0
(g60
g2
Ntp3143
Rp3144
(dp3145
g20
I0
sbsg95
g0
(g96
g2
Ntp3146
Rp3147
(dp3148
g20
I00
sbsg64
g0
(g50
g2
Ntp3149
Rp3150
(dp3151
g20
S'pre_i_el'
p3152
sbsg65
g1771
sg104
g0
(g105
g2
Ntp3153
Rp3154
(dp3155
g109
g2673
sg83
g0
(g84
g2
Ntp3156
Rp3157
(dp3158
g20
Finf
sbsg88
g0
(g60
g2
Ntp3159
Rp3160
(dp3161
g20
I0
sbsg172
g1065
sg95
g0
(g96
g2
Ntp3162
Rp3163
(dp3164
g20
I00
sbsbsg207
g0
(g105
g2
Ntp3165
Rp3166
(dp3167
g109
g3105
sg83
g0
(g84
g2
Ntp3168
Rp3169
(dp3170
g20
Finf
sbsg88
g0
(g60
g2
Ntp3171
Rp3172
(dp3173
g20
I0
sbsg172
g1094
sg95
g0
(g96
g2
Ntp3174
Rp3175
(dp3176
g20
I00
sbsbsg66
g0
(g16
g2
Ntp3177
Rp3178
(dp3179
g20
(dp3180
sbsg184
g0
(g185
g2
Ntp3181
Rp3182
(dp3183
g189
g0
(g22
g2
Ntp3184
Rp3185
(dp3186
g20
g2142
sbsbsg194
g0
(g16
g2
Ntp3187
Rp3188
(dp3189
g20
(dp3190
sbsg500
g0
(g16
g2
Ntp3191
Rp3192
(dp3193
g20
(dp3194
sbsg224
g0
(g16
g2
Ntp3195
Rp3196
(dp3197
g20
(dp3198
g0
(g50
g2
Ntp3199
Rp3200
(dp3201
g20
S'Inheritance.name'
p3202
sbg0
(g233
g2
Ntp3203
Rp3204
(dp3205
g83
g0
(g60
g2
Ntp3206
Rp3207
(dp3208
g20
I1
sbsg88
g0
(g60
g2
Ntp3209
Rp3210
(dp3211
g20
I1
sbsg59
g0
(g60
g2
Ntp3212
Rp3213
(dp3214
g20
I0
sbsg95
g0
(g96
g2
Ntp3215
Rp3216
(dp3217
g20
I00
sbsg64
g3200
sg65
g3135
sg20
g3150
sg66
g0
(g16
g2
Ntp3218
Rp3219
(dp3220
g20
(dp3221
sbsg184
g1107
sg224
g0
(g16
g2
Ntp3222
Rp3223
(dp3224
g20
(dp3225
sbsg268
g1139
sg285
g0
(g16
g2
Ntp3226
Rp3227
(dp3228
g20
(dp3229
sbsbssbsg285
g0
(g16
g2
Ntp3230
Rp3231
(dp3232
g20
(dp3233
sbsbsg0
(g22
g2
Ntp3234
Rp3235
(dp3236
g20
S'protected.formalisms.Rule.post_i_el'
p3237
sbg0
(g513
g2
Ntp3238
Rp3239
(dp3240
g83
g0
(g84
g2
Ntp3241
Rp3242
(dp3243
g20
Finf
sbsg88
g0
(g60
g2
Ntp3244
Rp3245
(dp3246
g20
I0
sbsg59
g0
(g60
g2
Ntp3247
Rp3248
(dp3249
g20
I0
sbsg95
g0
(g96
g2
Ntp3250
Rp3251
(dp3252
g20
I00
sbsg64
g0
(g50
g2
Ntp3253
Rp3254
(dp3255
g20
S'post_i_el'
p3256
sbsg65
g1771
sg104
g0
(g105
g2
Ntp3257
Rp3258
(dp3259
g109
g0
(g110
g2
Ntp3260
Rp3261
(dp3262
g83
g0
(g84
g2
Ntp3263
Rp3264
(dp3265
g20
Finf
sbsg88
g0
(g60
g2
Ntp3266
Rp3267
(dp3268
g20
I0
sbsg59
g0
(g60
g2
Ntp3269
Rp3270
(dp3271
g20
I1
sbsg95
g0
(g96
g2
Ntp3272
Rp3273
(dp3274
g20
I00
sbsg64
g0
(g50
g2
Ntp3275
Rp3276
(dp3277
g20
S'MTpost_Element'
p3278
sbsg65
g1771
sg100
g0
(g96
g2
Ntp3279
Rp3280
(dp3281
g20
I01
sbsg66
g0
(g16
g2
Ntp3282
Rp3283
(dp3284
g20
(dp3285
g0
(g22
g2
Ntp3286
Rp3287
(dp3288
g20
S'protected.formalisms.Rule.MTpost_Association'
p3289
sbg0
(g79
g2
Ntp3290
Rp3291
(dp3292
g83
g0
(g84
g2
Ntp3293
Rp3294
(dp3295
g20
Finf
sbsg88
g0
(g60
g2
Ntp3296
Rp3297
(dp3298
g20
I0
sbsg59
g0
(g60
g2
Ntp3299
Rp3300
(dp3301
g20
I1
sbsg95
g0
(g96
g2
Ntp3302
Rp3303
(dp3304
g20
I00
sbsg64
g0
(g50
g2
Ntp3305
Rp3306
(dp3307
g20
S'MTpost_Association'
p3308
sbsg65
g1771
sg100
g0
(g96
g2
Ntp3309
Rp3310
(dp3311
g20
I01
sbsg104
g0
(g105
g2
Ntp3312
Rp3313
(dp3314
g109
g3261
sg83
g0
(g84
g2
Ntp3315
Rp3316
(dp3317
g20
Finf
sbsg88
g0
(g60
g2
Ntp3318
Rp3319
(dp3320
g20
I0
sbsg172
g0
(g50
g2
Ntp3321
Rp3322
(dp3323
g20
g2740
sbsg95
g0
(g96
g2
Ntp3324
Rp3325
(dp3326
g20
I00
sbsbsg66
g0
(g16
g2
Ntp3327
Rp3328
(dp3329
g20
(dp3330
sbsg184
g0
(g185
g2
Ntp3331
Rp3332
(dp3333
g189
g0
(g22
g2
Ntp3334
Rp3335
(dp3336
g20
g2664
sbsbsg194
g0
(g16
g2
Ntp3337
Rp3338
(dp3339
g20
(dp3340
g0
(g22
g2
Ntp3341
Rp3342
(dp3343
g20
g2761
sbg0
(g203
g2
Ntp3344
Rp3345
(dp3346
g189
g3342
sbssbsg207
g0
(g105
g2
Ntp3347
Rp3348
(dp3349
g109
g3261
sg83
g0
(g84
g2
Ntp3350
Rp3351
(dp3352
g20
Finf
sbsg88
g0
(g60
g2
Ntp3353
Rp3354
(dp3355
g20
I0
sbsg172
g0
(g50
g2
Ntp3356
Rp3357
(dp3358
g20
g2777
sbsg95
g0
(g96
g2
Ntp3359
Rp3360
(dp3361
g20
I00
sbsbsg224
g0
(g16
g2
Ntp3362
Rp3363
(dp3364
g20
(dp3365
g0
(g50
g2
Ntp3366
Rp3367
(dp3368
g20
S'Association.to_min'
p3369
sbg0
(g233
g2
Ntp3370
Rp3371
(dp3372
g83
g0
(g60
g2
Ntp3373
Rp3374
(dp3375
g20
I1
sbsg88
g0
(g60
g2
Ntp3376
Rp3377
(dp3378
g20
I1
sbsg59
g0
(g60
g2
Ntp3379
Rp3380
(dp3381
g20
I0
sbsg95
g0
(g96
g2
Ntp3382
Rp3383
(dp3384
g20
I00
sbsg64
g3367
sg65
g3291
sg20
g3354
sg66
g0
(g16
g2
Ntp3385
Rp3386
(dp3387
g20
(dp3388
sbsg184
g463
sg224
g0
(g16
g2
Ntp3389
Rp3390
(dp3391
g20
(dp3392
sbsg268
g495
sg285
g0
(g16
g2
Ntp3393
Rp3394
(dp3395
g20
(dp3396
sbsbsg0
(g50
g2
Ntp3397
Rp3398
(dp3399
g20
S'Association.to_port'
p3400
sbg0
(g233
g2
Ntp3401
Rp3402
(dp3403
g83
g0
(g60
g2
Ntp3404
Rp3405
(dp3406
g20
I1
sbsg88
g0
(g60
g2
Ntp3407
Rp3408
(dp3409
g20
I1
sbsg59
g0
(g60
g2
Ntp3410
Rp3411
(dp3412
g20
I0
sbsg95
g0
(g96
g2
Ntp3413
Rp3414
(dp3415
g20
I00
sbsg64
g3398
sg65
g3291
sg20
g3357
sg66
g0
(g16
g2
Ntp3416
Rp3417
(dp3418
g20
(dp3419
sbsg184
g295
sg224
g0
(g16
g2
Ntp3420
Rp3421
(dp3422
g20
(dp3423
sbsg268
g329
sg285
g0
(g16
g2
Ntp3424
Rp3425
(dp3426
g20
(dp3427
sbsbsg0
(g50
g2
Ntp3428
Rp3429
(dp3430
g20
S'Association.from_port'
p3431
sbg0
(g233
g2
Ntp3432
Rp3433
(dp3434
g83
g0
(g60
g2
Ntp3435
Rp3436
(dp3437
g20
I1
sbsg88
g0
(g60
g2
Ntp3438
Rp3439
(dp3440
g20
I1
sbsg59
g0
(g60
g2
Ntp3441
Rp3442
(dp3443
g20
I0
sbsg95
g0
(g96
g2
Ntp3444
Rp3445
(dp3446
g20
I00
sbsg64
g3429
sg65
g3291
sg20
g3322
sg66
g0
(g16
g2
Ntp3447
Rp3448
(dp3449
g20
(dp3450
sbsg184
g421
sg224
g0
(g16
g2
Ntp3451
Rp3452
(dp3453
g20
(dp3454
sbsg268
g453
sg285
g0
(g16
g2
Ntp3455
Rp3456
(dp3457
g20
(dp3458
sbsbsg0
(g50
g2
Ntp3459
Rp3460
(dp3461
g20
S'Association.from_min'
p3462
sbg0
(g233
g2
Ntp3463
Rp3464
(dp3465
g83
g0
(g60
g2
Ntp3466
Rp3467
(dp3468
g20
I1
sbsg88
g0
(g60
g2
Ntp3469
Rp3470
(dp3471
g20
I1
sbsg59
g0
(g60
g2
Ntp3472
Rp3473
(dp3474
g20
I0
sbsg95
g0
(g96
g2
Ntp3475
Rp3476
(dp3477
g20
I00
sbsg64
g3460
sg65
g3291
sg20
g3319
sg66
g0
(g16
g2
Ntp3478
Rp3479
(dp3480
g20
(dp3481
sbsg184
g379
sg224
g0
(g16
g2
Ntp3482
Rp3483
(dp3484
g20
(dp3485
sbsg268
g411
sg285
g0
(g16
g2
Ntp3486
Rp3487
(dp3488
g20
(dp3489
sbsbsg0
(g50
g2
Ntp3490
Rp3491
(dp3492
g20
S'Class.name'
p3493
sbg0
(g233
g2
Ntp3494
Rp3495
(dp3496
g83
g0
(g60
g2
Ntp3497
Rp3498
(dp3499
g20
I1
sbsg88
g0
(g60
g2
Ntp3500
Rp3501
(dp3502
g20
I1
sbsg59
g0
(g60
g2
Ntp3503
Rp3504
(dp3505
g20
I0
sbsg95
g0
(g96
g2
Ntp3506
Rp3507
(dp3508
g20
I00
sbsg64
g3491
sg65
g3291
sg20
g3306
sg66
g0
(g16
g2
Ntp3509
Rp3510
(dp3511
g20
(dp3512
sbsg184
g663
sg224
g0
(g16
g2
Ntp3513
Rp3514
(dp3515
g20
(dp3516
sbsg268
g695
sg285
g0
(g16
g2
Ntp3517
Rp3518
(dp3519
g20
(dp3520
sbsbsg0
(g50
g2
Ntp3521
Rp3522
(dp3523
g20
S'Class.is_abstract'
p3524
sbg0
(g233
g2
Ntp3525
Rp3526
(dp3527
g83
g0
(g60
g2
Ntp3528
Rp3529
(dp3530
g20
I1
sbsg88
g0
(g60
g2
Ntp3531
Rp3532
(dp3533
g20
I1
sbsg59
g0
(g60
g2
Ntp3534
Rp3535
(dp3536
g20
I0
sbsg95
g0
(g96
g2
Ntp3537
Rp3538
(dp3539
g20
I00
sbsg64
g3522
sg65
g3291
sg20
g3310
sg66
g0
(g16
g2
Ntp3540
Rp3541
(dp3542
g20
(dp3543
sbsg184
g620
sg224
g0
(g16
g2
Ntp3544
Rp3545
(dp3546
g20
(dp3547
sbsg268
g653
sg285
g0
(g16
g2
Ntp3548
Rp3549
(dp3550
g20
(dp3551
sbsbsg0
(g50
g2
Ntp3552
Rp3553
(dp3554
g20
S'Association.to_max'
p3555
sbg0
(g233
g2
Ntp3556
Rp3557
(dp3558
g83
g0
(g60
g2
Ntp3559
Rp3560
(dp3561
g20
I1
sbsg88
g0
(g60
g2
Ntp3562
Rp3563
(dp3564
g20
I1
sbsg59
g0
(g60
g2
Ntp3565
Rp3566
(dp3567
g20
I0
sbsg95
g0
(g96
g2
Ntp3568
Rp3569
(dp3570
g20
I00
sbsg64
g3553
sg65
g3291
sg20
g3351
sg66
g0
(g16
g2
Ntp3571
Rp3572
(dp3573
g20
(dp3574
sbsg184
g339
sg224
g0
(g16
g2
Ntp3575
Rp3576
(dp3577
g20
(dp3578
sbsg268
g271
sg285
g0
(g16
g2
Ntp3579
Rp3580
(dp3581
g20
(dp3582
sbsbsg0
(g50
g2
Ntp3583
Rp3584
(dp3585
g20
S'Association.from_max'
p3586
sbg0
(g233
g2
Ntp3587
Rp3588
(dp3589
g83
g0
(g60
g2
Ntp3590
Rp3591
(dp3592
g20
I1
sbsg88
g0
(g60
g2
Ntp3593
Rp3594
(dp3595
g20
I1
sbsg59
g0
(g60
g2
Ntp3596
Rp3597
(dp3598
g20
I0
sbsg95
g0
(g96
g2
Ntp3599
Rp3600
(dp3601
g20
I00
sbsg64
g3584
sg65
g3291
sg20
g3316
sg66
g0
(g16
g2
Ntp3602
Rp3603
(dp3604
g20
(dp3605
sbsg184
g235
sg224
g0
(g16
g2
Ntp3606
Rp3607
(dp3608
g20
(dp3609
sbsg268
g271
sg285
g0
(g16
g2
Ntp3610
Rp3611
(dp3612
g20
(dp3613
sbsbssbsg500
g0
(g16
g2
Ntp3614
Rp3615
(dp3616
g20
(dp3617
sbsg285
g0
(g16
g2
Ntp3618
Rp3619
(dp3620
g20
(dp3621
g0
(g22
g2
Ntp3622
Rp3623
(dp3624
g20
S'protected.formalisms.Rule.post_i_assoc'
p3625
sbg0
(g513
g2
Ntp3626
Rp3627
(dp3628
g83
g0
(g84
g2
Ntp3629
Rp3630
(dp3631
g20
Finf
sbsg88
g0
(g60
g2
Ntp3632
Rp3633
(dp3634
g20
I0
sbsg59
g0
(g60
g2
Ntp3635
Rp3636
(dp3637
g20
I0
sbsg95
g0
(g96
g2
Ntp3638
Rp3639
(dp3640
g20
I00
sbsg64
g0
(g50
g2
Ntp3641
Rp3642
(dp3643
g20
S'post_i_assoc'
p3644
sbsg65
g1771
sg104
g0
(g105
g2
Ntp3645
Rp3646
(dp3647
g109
g3291
sg83
g0
(g84
g2
Ntp3648
Rp3649
(dp3650
g20
Finf
sbsg88
g0
(g60
g2
Ntp3651
Rp3652
(dp3653
g20
I0
sbsg172
g1065
sg95
g0
(g96
g2
Ntp3654
Rp3655
(dp3656
g20
I00
sbsbsg207
g0
(g105
g2
Ntp3657
Rp3658
(dp3659
g109
g3080
sg83
g0
(g84
g2
Ntp3660
Rp3661
(dp3662
g20
Finf
sbsg88
g0
(g60
g2
Ntp3663
Rp3664
(dp3665
g20
I0
sbsg172
g1094
sg95
g0
(g96
g2
Ntp3666
Rp3667
(dp3668
g20
I00
sbsbsg66
g0
(g16
g2
Ntp3669
Rp3670
(dp3671
g20
(dp3672
sbsg184
g0
(g185
g2
Ntp3673
Rp3674
(dp3675
g189
g0
(g22
g2
Ntp3676
Rp3677
(dp3678
g20
g2142
sbsbsg194
g0
(g16
g2
Ntp3679
Rp3680
(dp3681
g20
(dp3682
sbsg500
g0
(g16
g2
Ntp3683
Rp3684
(dp3685
g20
(dp3686
sbsg224
g0
(g16
g2
Ntp3687
Rp3688
(dp3689
g20
(dp3690
g0
(g50
g2
Ntp3691
Rp3692
(dp3693
g20
S'Inheritance.name'
p3694
sbg0
(g233
g2
Ntp3695
Rp3696
(dp3697
g83
g0
(g60
g2
Ntp3698
Rp3699
(dp3700
g20
I1
sbsg88
g0
(g60
g2
Ntp3701
Rp3702
(dp3703
g20
I1
sbsg59
g0
(g60
g2
Ntp3704
Rp3705
(dp3706
g20
I0
sbsg95
g0
(g96
g2
Ntp3707
Rp3708
(dp3709
g20
I00
sbsg64
g3692
sg65
g3627
sg20
g3642
sg66
g0
(g16
g2
Ntp3710
Rp3711
(dp3712
g20
(dp3713
sbsg184
g1107
sg224
g0
(g16
g2
Ntp3714
Rp3715
(dp3716
g20
(dp3717
sbsg268
g1139
sg285
g0
(g16
g2
Ntp3718
Rp3719
(dp3720
g20
(dp3721
sbsbssbsg285
g0
(g16
g2
Ntp3722
Rp3723
(dp3724
g20
(dp3725
sbsbssbsbsg0
(g22
g2
Ntp3726
Rp3727
(dp3728
g20
S'protected.formalisms.Rule.MTpost_Contents'
p3729
sbg0
(g79
g2
Ntp3730
Rp3731
(dp3732
g83
g0
(g84
g2
Ntp3733
Rp3734
(dp3735
g20
Finf
sbsg88
g0
(g60
g2
Ntp3736
Rp3737
(dp3738
g20
I0
sbsg59
g0
(g60
g2
Ntp3739
Rp3740
(dp3741
g20
I1
sbsg95
g0
(g96
g2
Ntp3742
Rp3743
(dp3744
g20
I00
sbsg64
g0
(g50
g2
Ntp3745
Rp3746
(dp3747
g20
S'MTpost_Contents'
p3748
sbsg65
g1771
sg100
g0
(g96
g2
Ntp3749
Rp3750
(dp3751
g20
I00
sbsg104
g0
(g105
g2
Ntp3752
Rp3753
(dp3754
g109
g0
(g110
g2
Ntp3755
Rp3756
(dp3757
g83
g0
(g84
g2
Ntp3758
Rp3759
(dp3760
g20
Finf
sbsg88
g0
(g60
g2
Ntp3761
Rp3762
(dp3763
g20
I0
sbsg59
g0
(g60
g2
Ntp3764
Rp3765
(dp3766
g20
I1
sbsg95
g0
(g96
g2
Ntp3767
Rp3768
(dp3769
g20
I00
sbsg64
g0
(g50
g2
Ntp3770
Rp3771
(dp3772
g20
S'MTpost_Pattern'
p3773
sbsg65
g1771
sg100
g0
(g96
g2
Ntp3774
Rp3775
(dp3776
g20
I01
sbsg66
g0
(g16
g2
Ntp3777
Rp3778
(dp3779
g20
(dp3780
g0
(g22
g2
Ntp3781
Rp3782
(dp3783
g20
S'protected.formalisms.Rule.rhs_i_pattern'
p3784
sbg0
(g513
g2
Ntp3785
Rp3786
(dp3787
g83
g0
(g84
g2
Ntp3788
Rp3789
(dp3790
g20
Finf
sbsg88
g0
(g60
g2
Ntp3791
Rp3792
(dp3793
g20
I0
sbsg59
g0
(g60
g2
Ntp3794
Rp3795
(dp3796
g20
I0
sbsg95
g0
(g96
g2
Ntp3797
Rp3798
(dp3799
g20
I00
sbsg64
g0
(g50
g2
Ntp3800
Rp3801
(dp3802
g20
S'rhs_i_pattern'
p3803
sbsg65
g1771
sg104
g0
(g105
g2
Ntp3804
Rp3805
(dp3806
g109
g0
(g110
g2
Ntp3807
Rp3808
(dp3809
g83
g0
(g84
g2
Ntp3810
Rp3811
(dp3812
g20
Finf
sbsg88
g0
(g60
g2
Ntp3813
Rp3814
(dp3815
g20
I0
sbsg59
g0
(g60
g2
Ntp3816
Rp3817
(dp3818
g20
I1
sbsg95
g0
(g96
g2
Ntp3819
Rp3820
(dp3821
g20
I00
sbsg64
g0
(g50
g2
Ntp3822
Rp3823
(dp3824
g20
S'RHS'
p3825
sbsg65
g1771
sg100
g0
(g96
g2
Ntp3826
Rp3827
(dp3828
g20
I00
sbsg66
g0
(g16
g2
Ntp3829
Rp3830
(dp3831
g20
(dp3832
sbsg184
g0
(g203
g2
Ntp3833
Rp3834
(dp3835
g189
g0
(g22
g2
Ntp3836
Rp3837
(dp3838
g20
g202
sbsbsg194
g0
(g16
g2
Ntp3839
Rp3840
(dp3841
g20
(dp3842
g0
(g22
g2
Ntp3843
Rp3844
(dp3845
g20
S'protected.formalisms.Rule.MTpost_Pattern'
p3846
sbg0
(g203
g2
Ntp3847
Rp3848
(dp3849
g189
g3844
sbssbsg500
g0
(g16
g2
Ntp3850
Rp3851
(dp3852
g20
(dp3853
sbsg224
g0
(g16
g2
Ntp3854
Rp3855
(dp3856
g20
(dp3857
g0
(g50
g2
Ntp3858
Rp3859
(dp3860
g20
S'Class.name'
p3861
sbg0
(g233
g2
Ntp3862
Rp3863
(dp3864
g83
g0
(g60
g2
Ntp3865
Rp3866
(dp3867
g20
I1
sbsg88
g0
(g60
g2
Ntp3868
Rp3869
(dp3870
g20
I1
sbsg59
g0
(g60
g2
Ntp3871
Rp3872
(dp3873
g20
I0
sbsg95
g0
(g96
g2
Ntp3874
Rp3875
(dp3876
g20
I00
sbsg64
g3859
sg65
g3808
sg20
g3823
sg66
g0
(g16
g2
Ntp3877
Rp3878
(dp3879
g20
(dp3880
sbsg184
g663
sg224
g0
(g16
g2
Ntp3881
Rp3882
(dp3883
g20
(dp3884
sbsg268
g695
sg285
g0
(g16
g2
Ntp3885
Rp3886
(dp3887
g20
(dp3888
sbsbsg0
(g50
g2
Ntp3889
Rp3890
(dp3891
g20
S'Class.is_abstract'
p3892
sbg0
(g233
g2
Ntp3893
Rp3894
(dp3895
g83
g0
(g60
g2
Ntp3896
Rp3897
(dp3898
g20
I1
sbsg88
g0
(g60
g2
Ntp3899
Rp3900
(dp3901
g20
I1
sbsg59
g0
(g60
g2
Ntp3902
Rp3903
(dp3904
g20
I0
sbsg95
g0
(g96
g2
Ntp3905
Rp3906
(dp3907
g20
I00
sbsg64
g3890
sg65
g3808
sg20
g3827
sg66
g0
(g16
g2
Ntp3908
Rp3909
(dp3910
g20
(dp3911
sbsg184
g620
sg224
g0
(g16
g2
Ntp3912
Rp3913
(dp3914
g20
(dp3915
sbsg268
g653
sg285
g0
(g16
g2
Ntp3916
Rp3917
(dp3918
g20
(dp3919
sbsbssbsg285
g0
(g16
g2
Ntp3920
Rp3921
(dp3922
g20
(dp3923
g0
(g22
g2
Ntp3924
Rp3925
(dp3926
g20
S'protected.formalisms.Rule.rhs_i_pattern'
p3927
sbg3786
ssbsbsg83
g0
(g84
g2
Ntp3928
Rp3929
(dp3930
g20
Finf
sbsg88
g0
(g60
g2
Ntp3931
Rp3932
(dp3933
g20
I0
sbsg172
g1065
sg95
g0
(g96
g2
Ntp3934
Rp3935
(dp3936
g20
I00
sbsbsg207
g0
(g105
g2
Ntp3937
Rp3938
(dp3939
g109
g3756
sg83
g0
(g84
g2
Ntp3940
Rp3941
(dp3942
g20
Finf
sbsg88
g0
(g60
g2
Ntp3943
Rp3944
(dp3945
g20
I0
sbsg172
g1094
sg95
g0
(g96
g2
Ntp3946
Rp3947
(dp3948
g20
I00
sbsbsg66
g0
(g16
g2
Ntp3949
Rp3950
(dp3951
g20
(dp3952
sbsg184
g0
(g185
g2
Ntp3953
Rp3954
(dp3955
g189
g0
(g22
g2
Ntp3956
Rp3957
(dp3958
g20
g2142
sbsbsg194
g0
(g16
g2
Ntp3959
Rp3960
(dp3961
g20
(dp3962
sbsg500
g0
(g16
g2
Ntp3963
Rp3964
(dp3965
g20
(dp3966
sbsg224
g0
(g16
g2
Ntp3967
Rp3968
(dp3969
g20
(dp3970
g0
(g50
g2
Ntp3971
Rp3972
(dp3973
g20
S'Inheritance.name'
p3974
sbg0
(g233
g2
Ntp3975
Rp3976
(dp3977
g83
g0
(g60
g2
Ntp3978
Rp3979
(dp3980
g20
I1
sbsg88
g0
(g60
g2
Ntp3981
Rp3982
(dp3983
g20
I1
sbsg59
g0
(g60
g2
Ntp3984
Rp3985
(dp3986
g20
I0
sbsg95
g0
(g96
g2
Ntp3987
Rp3988
(dp3989
g20
I00
sbsg64
g3972
sg65
g3786
sg20
g3801
sg66
g0
(g16
g2
Ntp3990
Rp3991
(dp3992
g20
(dp3993
sbsg184
g1107
sg224
g0
(g16
g2
Ntp3994
Rp3995
(dp3996
g20
(dp3997
sbsg268
g1139
sg285
g0
(g16
g2
Ntp3998
Rp3999
(dp4000
g20
(dp4001
sbsbssbsg285
g0
(g16
g2
Ntp4002
Rp4003
(dp4004
g20
(dp4005
sbsbssbsg184
g0
(g203
g2
Ntp4006
Rp4007
(dp4008
g189
g0
(g22
g2
Ntp4009
Rp4010
(dp4011
g20
g202
sbsbsg194
g0
(g16
g2
Ntp4012
Rp4013
(dp4014
g20
(dp4015
sbsg500
g0
(g16
g2
Ntp4016
Rp4017
(dp4018
g20
(dp4019
g0
(g22
g2
Ntp4020
Rp4021
(dp4022
g20
S'protected.formalisms.Rule.RHS'
p4023
sbg3808
ssbsg224
g0
(g16
g2
Ntp4024
Rp4025
(dp4026
g20
(dp4027
g0
(g50
g2
Ntp4028
Rp4029
(dp4030
g20
g2223
sbg0
(g233
g2
Ntp4031
Rp4032
(dp4033
g83
g0
(g60
g2
Ntp4034
Rp4035
(dp4036
g20
I1
sbsg88
g0
(g60
g2
Ntp4037
Rp4038
(dp4039
g20
I1
sbsg59
g0
(g60
g2
Ntp4040
Rp4041
(dp4042
g20
I1
sbsg95
g0
(g96
g2
Ntp4043
Rp4044
(dp4045
g20
I00
sbsg64
g4029
sg65
g3756
sg249
g0
(g50
g2
Ntp4046
Rp4047
(dp4048
g20
g312
sbsg66
g0
(g16
g2
Ntp4049
Rp4050
(dp4051
g20
(dp4052
g0
(g22
g2
Ntp4053
Rp4054
(dp4055
g20
S'protected.formalisms.Rule.MTpost_Pattern_a_pattern_name'
p4056
sbg0
(g758
g2
Ntp4057
Rp4058
(dp4059
g83
g0
(g84
g2
Ntp4060
Rp4061
(dp4062
g20
Finf
sbsg88
g0
(g60
g2
Ntp4063
Rp4064
(dp4065
g20
I0
sbsg59
g0
(g60
g2
Ntp4066
Rp4067
(dp4068
g20
I0
sbsg95
g0
(g96
g2
Ntp4069
Rp4070
(dp4071
g20
I00
sbsg64
g0
(g50
g2
Ntp4072
Rp4073
(dp4074
g20
S'MTpost_Pattern_a_pattern_name'
p4075
sbsg65
g1771
sg104
g0
(g105
g2
Ntp4076
Rp4077
(dp4078
g109
g3756
sg83
g0
(g84
g2
Ntp4079
Rp4080
(dp4081
g20
Finf
sbsg88
g0
(g60
g2
Ntp4082
Rp4083
(dp4084
g20
I0
sbsg172
g791
sg95
g0
(g96
g2
Ntp4085
Rp4086
(dp4087
g20
I00
sbsbsg207
g0
(g105
g2
Ntp4088
Rp4089
(dp4090
g109
g4032
sg83
g0
(g84
g2
Ntp4091
Rp4092
(dp4093
g20
Finf
sbsg88
g0
(g60
g2
Ntp4094
Rp4095
(dp4096
g20
I0
sbsg172
g999
sg95
g0
(g96
g2
Ntp4097
Rp4098
(dp4099
g20
I00
sbsbsg66
g0
(g16
g2
Ntp4100
Rp4101
(dp4102
g20
(dp4103
sbsg184
g0
(g185
g2
Ntp4104
Rp4105
(dp4106
g189
g0
(g22
g2
Ntp4107
Rp4108
(dp4109
g20
g1522
sbsbsg194
g0
(g16
g2
Ntp4110
Rp4111
(dp4112
g20
(dp4113
sbsg500
g0
(g16
g2
Ntp4114
Rp4115
(dp4116
g20
(dp4117
sbsg224
g0
(g16
g2
Ntp4118
Rp4119
(dp4120
g20
(dp4121
g0
(g50
g2
Ntp4122
Rp4123
(dp4124
g20
S'attributes.name'
p4125
sbg0
(g233
g2
Ntp4126
Rp4127
(dp4128
g83
g0
(g60
g2
Ntp4129
Rp4130
(dp4131
g20
I1
sbsg88
g0
(g60
g2
Ntp4132
Rp4133
(dp4134
g20
I1
sbsg59
g0
(g60
g2
Ntp4135
Rp4136
(dp4137
g20
I0
sbsg95
g0
(g96
g2
Ntp4138
Rp4139
(dp4140
g20
I00
sbsg64
g4123
sg65
g4058
sg20
g4073
sg66
g0
(g16
g2
Ntp4141
Rp4142
(dp4143
g20
(dp4144
sbsg184
g1013
sg224
g0
(g16
g2
Ntp4145
Rp4146
(dp4147
g20
(dp4148
sbsg268
g1045
sg285
g0
(g16
g2
Ntp4149
Rp4150
(dp4151
g20
(dp4152
sbsbssbsg285
g0
(g16
g2
Ntp4153
Rp4154
(dp4155
g20
(dp4156
sbsbssbsg184
g0
(g203
g2
Ntp4157
Rp4158
(dp4159
g189
g0
(g22
g2
Ntp4160
Rp4161
(dp4162
g20
g1331
sbsbsg224
g0
(g16
g2
Ntp4163
Rp4164
(dp4165
g20
(dp4166
sbsg268
g2361
sg285
g0
(g16
g2
Ntp4167
Rp4168
(dp4169
g20
(dp4170
sbsbsg0
(g50
g2
Ntp4171
Rp4172
(dp4173
g20
S'Class.name'
p4174
sbg0
(g233
g2
Ntp4175
Rp4176
(dp4177
g83
g0
(g60
g2
Ntp4178
Rp4179
(dp4180
g20
I1
sbsg88
g0
(g60
g2
Ntp4181
Rp4182
(dp4183
g20
I1
sbsg59
g0
(g60
g2
Ntp4184
Rp4185
(dp4186
g20
I0
sbsg95
g0
(g96
g2
Ntp4187
Rp4188
(dp4189
g20
I00
sbsg64
g4172
sg65
g3756
sg20
g3771
sg66
g0
(g16
g2
Ntp4190
Rp4191
(dp4192
g20
(dp4193
sbsg184
g663
sg224
g0
(g16
g2
Ntp4194
Rp4195
(dp4196
g20
(dp4197
sbsg268
g695
sg285
g0
(g16
g2
Ntp4198
Rp4199
(dp4200
g20
(dp4201
sbsbsg0
(g50
g2
Ntp4202
Rp4203
(dp4204
g20
S'Class.is_abstract'
p4205
sbg0
(g233
g2
Ntp4206
Rp4207
(dp4208
g83
g0
(g60
g2
Ntp4209
Rp4210
(dp4211
g20
I1
sbsg88
g0
(g60
g2
Ntp4212
Rp4213
(dp4214
g20
I1
sbsg59
g0
(g60
g2
Ntp4215
Rp4216
(dp4217
g20
I0
sbsg95
g0
(g96
g2
Ntp4218
Rp4219
(dp4220
g20
I00
sbsg64
g4203
sg65
g3756
sg20
g3775
sg66
g0
(g16
g2
Ntp4221
Rp4222
(dp4223
g20
(dp4224
sbsg184
g620
sg224
g0
(g16
g2
Ntp4225
Rp4226
(dp4227
g20
(dp4228
sbsg268
g653
sg285
g0
(g16
g2
Ntp4229
Rp4230
(dp4231
g20
(dp4232
sbsbsg0
(g50
g2
Ntp4233
Rp4234
(dp4235
g20
S'Class.id_field'
p4236
sbg0
(g233
g2
Ntp4237
Rp4238
(dp4239
g83
g0
(g60
g2
Ntp4240
Rp4241
(dp4242
g20
I1
sbsg88
g0
(g60
g2
Ntp4243
Rp4244
(dp4245
g20
I1
sbsg59
g0
(g60
g2
Ntp4246
Rp4247
(dp4248
g20
I0
sbsg95
g0
(g96
g2
Ntp4249
Rp4250
(dp4251
g20
I00
sbsg64
g4234
sg65
g3756
sg20
g0
(g50
g2
Ntp4252
Rp4253
(dp4254
g20
S'MTpost_Pattern.pattern_name'
p4255
sbsg66
g0
(g16
g2
Ntp4256
Rp4257
(dp4258
g20
(dp4259
sbsg184
g705
sg224
g0
(g16
g2
Ntp4260
Rp4261
(dp4262
g20
(dp4263
sbsg268
g737
sg285
g0
(g16
g2
Ntp4264
Rp4265
(dp4266
g20
(dp4267
sbsbsg0
(g50
g2
Ntp4268
Rp4269
(dp4270
g20
S'MT_action'
p4271
sbg0
(g233
g2
Ntp4272
Rp4273
(dp4274
g83
g0
(g60
g2
Ntp4275
Rp4276
(dp4277
g20
I1
sbsg88
g0
(g60
g2
Ntp4278
Rp4279
(dp4280
g20
I1
sbsg59
g0
(g60
g2
Ntp4281
Rp4282
(dp4283
g20
I1
sbsg95
g0
(g96
g2
Ntp4284
Rp4285
(dp4286
g20
I00
sbsg64
g4269
sg65
g3756
sg249
g0
(g50
g2
Ntp4287
Rp4288
(dp4289
g20
S'pass'
p4290
sbsg66
g0
(g16
g2
Ntp4291
Rp4292
(dp4293
g20
(dp4294
g0
(g22
g2
Ntp4295
Rp4296
(dp4297
g20
S'protected.formalisms.Rule.MTpost_Pattern_a_MT_action'
p4298
sbg0
(g758
g2
Ntp4299
Rp4300
(dp4301
g83
g0
(g84
g2
Ntp4302
Rp4303
(dp4304
g20
Finf
sbsg88
g0
(g60
g2
Ntp4305
Rp4306
(dp4307
g20
I0
sbsg59
g0
(g60
g2
Ntp4308
Rp4309
(dp4310
g20
I0
sbsg95
g0
(g96
g2
Ntp4311
Rp4312
(dp4313
g20
I00
sbsg64
g0
(g50
g2
Ntp4314
Rp4315
(dp4316
g20
S'MTpost_Pattern_a_MT_action'
p4317
sbsg65
g1771
sg104
g0
(g105
g2
Ntp4318
Rp4319
(dp4320
g109
g3756
sg83
g0
(g84
g2
Ntp4321
Rp4322
(dp4323
g20
Finf
sbsg88
g0
(g60
g2
Ntp4324
Rp4325
(dp4326
g20
I0
sbsg172
g791
sg95
g0
(g96
g2
Ntp4327
Rp4328
(dp4329
g20
I00
sbsbsg207
g0
(g105
g2
Ntp4330
Rp4331
(dp4332
g109
g4273
sg83
g0
(g84
g2
Ntp4333
Rp4334
(dp4335
g20
Finf
sbsg88
g0
(g60
g2
Ntp4336
Rp4337
(dp4338
g20
I0
sbsg172
g999
sg95
g0
(g96
g2
Ntp4339
Rp4340
(dp4341
g20
I00
sbsbsg66
g0
(g16
g2
Ntp4342
Rp4343
(dp4344
g20
(dp4345
sbsg184
g0
(g185
g2
Ntp4346
Rp4347
(dp4348
g189
g0
(g22
g2
Ntp4349
Rp4350
(dp4351
g20
g1522
sbsbsg194
g0
(g16
g2
Ntp4352
Rp4353
(dp4354
g20
(dp4355
sbsg500
g0
(g16
g2
Ntp4356
Rp4357
(dp4358
g20
(dp4359
sbsg224
g0
(g16
g2
Ntp4360
Rp4361
(dp4362
g20
(dp4363
g0
(g50
g2
Ntp4364
Rp4365
(dp4366
g20
S'attributes.name'
p4367
sbg0
(g233
g2
Ntp4368
Rp4369
(dp4370
g83
g0
(g60
g2
Ntp4371
Rp4372
(dp4373
g20
I1
sbsg88
g0
(g60
g2
Ntp4374
Rp4375
(dp4376
g20
I1
sbsg59
g0
(g60
g2
Ntp4377
Rp4378
(dp4379
g20
I0
sbsg95
g0
(g96
g2
Ntp4380
Rp4381
(dp4382
g20
I00
sbsg64
g4365
sg65
g4300
sg20
g4315
sg66
g0
(g16
g2
Ntp4383
Rp4384
(dp4385
g20
(dp4386
sbsg184
g1013
sg224
g0
(g16
g2
Ntp4387
Rp4388
(dp4389
g20
(dp4390
sbsg268
g1045
sg285
g0
(g16
g2
Ntp4391
Rp4392
(dp4393
g20
(dp4394
sbsbssbsg285
g0
(g16
g2
Ntp4395
Rp4396
(dp4397
g20
(dp4398
sbsbssbsg184
g0
(g203
g2
Ntp4399
Rp4400
(dp4401
g189
g0
(g22
g2
Ntp4402
Rp4403
(dp4404
g20
g1331
sbsbsg224
g0
(g16
g2
Ntp4405
Rp4406
(dp4407
g20
(dp4408
sbsg268
g2361
sg285
g0
(g16
g2
Ntp4409
Rp4410
(dp4411
g20
(dp4412
sbsbssbsg285
g0
(g16
g2
Ntp4413
Rp4414
(dp4415
g20
(dp4416
g0
(g22
g2
Ntp4417
Rp4418
(dp4419
g20
S'protected.formalisms.Rule.MTpost_Pattern_a_MT_action'
p4420
sbg4300
sg0
(g22
g2
Ntp4421
Rp4422
(dp4423
g20
S'protected.formalisms.Rule.MTpost_Contents'
p4424
sbg3731
sg0
(g22
g2
Ntp4425
Rp4426
(dp4427
g20
S'protected.formalisms.Rule.MTpost_Pattern_a_pattern_name'
p4428
sbg4058
ssbsbsg83
g0
(g84
g2
Ntp4429
Rp4430
(dp4431
g20
Finf
sbsg88
g0
(g60
g2
Ntp4432
Rp4433
(dp4434
g20
I0
sbsg172
g0
(g50
g2
Ntp4435
Rp4436
(dp4437
g20
g2650
sbsg95
g0
(g96
g2
Ntp4438
Rp4439
(dp4440
g20
I00
sbsbsg66
g0
(g16
g2
Ntp4441
Rp4442
(dp4443
g20
(dp4444
sbsg184
g0
(g185
g2
Ntp4445
Rp4446
(dp4447
g189
g0
(g22
g2
Ntp4448
Rp4449
(dp4450
g20
g2664
sbsbsg194
g0
(g16
g2
Ntp4451
Rp4452
(dp4453
g20
(dp4454
sbsg207
g0
(g105
g2
Ntp4455
Rp4456
(dp4457
g109
g3261
sg83
g0
(g84
g2
Ntp4458
Rp4459
(dp4460
g20
Finf
sbsg88
g0
(g60
g2
Ntp4461
Rp4462
(dp4463
g20
I0
sbsg172
g0
(g50
g2
Ntp4464
Rp4465
(dp4466
g20
g2777
sbsg95
g0
(g96
g2
Ntp4467
Rp4468
(dp4469
g20
I00
sbsbsg224
g0
(g16
g2
Ntp4470
Rp4471
(dp4472
g20
(dp4473
g0
(g50
g2
Ntp4474
Rp4475
(dp4476
g20
S'Association.to_min'
p4477
sbg0
(g233
g2
Ntp4478
Rp4479
(dp4480
g83
g0
(g60
g2
Ntp4481
Rp4482
(dp4483
g20
I1
sbsg88
g0
(g60
g2
Ntp4484
Rp4485
(dp4486
g20
I1
sbsg59
g0
(g60
g2
Ntp4487
Rp4488
(dp4489
g20
I0
sbsg95
g0
(g96
g2
Ntp4490
Rp4491
(dp4492
g20
I00
sbsg64
g4475
sg65
g3731
sg20
g4462
sg66
g0
(g16
g2
Ntp4493
Rp4494
(dp4495
g20
(dp4496
sbsg184
g463
sg224
g0
(g16
g2
Ntp4497
Rp4498
(dp4499
g20
(dp4500
sbsg268
g495
sg285
g0
(g16
g2
Ntp4501
Rp4502
(dp4503
g20
(dp4504
sbsbsg0
(g50
g2
Ntp4505
Rp4506
(dp4507
g20
S'Association.to_port'
p4508
sbg0
(g233
g2
Ntp4509
Rp4510
(dp4511
g83
g0
(g60
g2
Ntp4512
Rp4513
(dp4514
g20
I1
sbsg88
g0
(g60
g2
Ntp4515
Rp4516
(dp4517
g20
I1
sbsg59
g0
(g60
g2
Ntp4518
Rp4519
(dp4520
g20
I0
sbsg95
g0
(g96
g2
Ntp4521
Rp4522
(dp4523
g20
I00
sbsg64
g4506
sg65
g3731
sg20
g4465
sg66
g0
(g16
g2
Ntp4524
Rp4525
(dp4526
g20
(dp4527
sbsg184
g295
sg224
g0
(g16
g2
Ntp4528
Rp4529
(dp4530
g20
(dp4531
sbsg268
g329
sg285
g0
(g16
g2
Ntp4532
Rp4533
(dp4534
g20
(dp4535
sbsbsg0
(g50
g2
Ntp4536
Rp4537
(dp4538
g20
S'Association.from_port'
p4539
sbg0
(g233
g2
Ntp4540
Rp4541
(dp4542
g83
g0
(g60
g2
Ntp4543
Rp4544
(dp4545
g20
I1
sbsg88
g0
(g60
g2
Ntp4546
Rp4547
(dp4548
g20
I1
sbsg59
g0
(g60
g2
Ntp4549
Rp4550
(dp4551
g20
I0
sbsg95
g0
(g96
g2
Ntp4552
Rp4553
(dp4554
g20
I00
sbsg64
g4537
sg65
g3731
sg20
g4436
sg66
g0
(g16
g2
Ntp4555
Rp4556
(dp4557
g20
(dp4558
sbsg184
g421
sg224
g0
(g16
g2
Ntp4559
Rp4560
(dp4561
g20
(dp4562
sbsg268
g453
sg285
g0
(g16
g2
Ntp4563
Rp4564
(dp4565
g20
(dp4566
sbsbsg0
(g50
g2
Ntp4567
Rp4568
(dp4569
g20
S'Association.from_min'
p4570
sbg0
(g233
g2
Ntp4571
Rp4572
(dp4573
g83
g0
(g60
g2
Ntp4574
Rp4575
(dp4576
g20
I1
sbsg88
g0
(g60
g2
Ntp4577
Rp4578
(dp4579
g20
I1
sbsg59
g0
(g60
g2
Ntp4580
Rp4581
(dp4582
g20
I0
sbsg95
g0
(g96
g2
Ntp4583
Rp4584
(dp4585
g20
I00
sbsg64
g4568
sg65
g3731
sg20
g4433
sg66
g0
(g16
g2
Ntp4586
Rp4587
(dp4588
g20
(dp4589
sbsg184
g379
sg224
g0
(g16
g2
Ntp4590
Rp4591
(dp4592
g20
(dp4593
sbsg268
g411
sg285
g0
(g16
g2
Ntp4594
Rp4595
(dp4596
g20
(dp4597
sbsbsg0
(g50
g2
Ntp4598
Rp4599
(dp4600
g20
S'Class.id_field'
p4601
sbg0
(g233
g2
Ntp4602
Rp4603
(dp4604
g83
g0
(g60
g2
Ntp4605
Rp4606
(dp4607
g20
I1
sbsg88
g0
(g60
g2
Ntp4608
Rp4609
(dp4610
g20
I1
sbsg59
g0
(g60
g2
Ntp4611
Rp4612
(dp4613
g20
I0
sbsg95
g0
(g96
g2
Ntp4614
Rp4615
(dp4616
g20
I00
sbsg64
g4599
sg65
g3731
sg20
g0
(g50
g2
Ntp4617
Rp4618
(dp4619
g20
S'MTpost_Contents.id'
p4620
sbsg66
g0
(g16
g2
Ntp4621
Rp4622
(dp4623
g20
(dp4624
sbsg184
g705
sg224
g0
(g16
g2
Ntp4625
Rp4626
(dp4627
g20
(dp4628
sbsg268
g737
sg285
g0
(g16
g2
Ntp4629
Rp4630
(dp4631
g20
(dp4632
sbsbsg0
(g50
g2
Ntp4633
Rp4634
(dp4635
g20
S'Class.name'
p4636
sbg0
(g233
g2
Ntp4637
Rp4638
(dp4639
g83
g0
(g60
g2
Ntp4640
Rp4641
(dp4642
g20
I1
sbsg88
g0
(g60
g2
Ntp4643
Rp4644
(dp4645
g20
I1
sbsg59
g0
(g60
g2
Ntp4646
Rp4647
(dp4648
g20
I0
sbsg95
g0
(g96
g2
Ntp4649
Rp4650
(dp4651
g20
I00
sbsg64
g4634
sg65
g3731
sg20
g3746
sg66
g0
(g16
g2
Ntp4652
Rp4653
(dp4654
g20
(dp4655
sbsg184
g663
sg224
g0
(g16
g2
Ntp4656
Rp4657
(dp4658
g20
(dp4659
sbsg268
g695
sg285
g0
(g16
g2
Ntp4660
Rp4661
(dp4662
g20
(dp4663
sbsbsg0
(g50
g2
Ntp4664
Rp4665
(dp4666
g20
S'Class.is_abstract'
p4667
sbg0
(g233
g2
Ntp4668
Rp4669
(dp4670
g83
g0
(g60
g2
Ntp4671
Rp4672
(dp4673
g20
I1
sbsg88
g0
(g60
g2
Ntp4674
Rp4675
(dp4676
g20
I1
sbsg59
g0
(g60
g2
Ntp4677
Rp4678
(dp4679
g20
I0
sbsg95
g0
(g96
g2
Ntp4680
Rp4681
(dp4682
g20
I00
sbsg64
g4665
sg65
g3731
sg20
g3750
sg66
g0
(g16
g2
Ntp4683
Rp4684
(dp4685
g20
(dp4686
sbsg184
g620
sg224
g0
(g16
g2
Ntp4687
Rp4688
(dp4689
g20
(dp4690
sbsg268
g653
sg285
g0
(g16
g2
Ntp4691
Rp4692
(dp4693
g20
(dp4694
sbsbsg0
(g50
g2
Ntp4695
Rp4696
(dp4697
g20
S'Association.to_max'
p4698
sbg0
(g233
g2
Ntp4699
Rp4700
(dp4701
g83
g0
(g60
g2
Ntp4702
Rp4703
(dp4704
g20
I1
sbsg88
g0
(g60
g2
Ntp4705
Rp4706
(dp4707
g20
I1
sbsg59
g0
(g60
g2
Ntp4708
Rp4709
(dp4710
g20
I0
sbsg95
g0
(g96
g2
Ntp4711
Rp4712
(dp4713
g20
I00
sbsg64
g4696
sg65
g3731
sg20
g4459
sg66
g0
(g16
g2
Ntp4714
Rp4715
(dp4716
g20
(dp4717
sbsg184
g339
sg224
g0
(g16
g2
Ntp4718
Rp4719
(dp4720
g20
(dp4721
sbsg268
g271
sg285
g0
(g16
g2
Ntp4722
Rp4723
(dp4724
g20
(dp4725
sbsbsg0
(g50
g2
Ntp4726
Rp4727
(dp4728
g20
g1298
sbg0
(g233
g2
Ntp4729
Rp4730
(dp4731
g83
g0
(g60
g2
Ntp4732
Rp4733
(dp4734
g20
I1
sbsg88
g0
(g60
g2
Ntp4735
Rp4736
(dp4737
g20
I1
sbsg59
g0
(g60
g2
Ntp4738
Rp4739
(dp4740
g20
I1
sbsg95
g0
(g96
g2
Ntp4741
Rp4742
(dp4743
g20
I00
sbsg64
g4727
sg65
g3731
sg249
g0
(g50
g2
Ntp4744
Rp4745
(dp4746
g20
g312
sbsg66
g0
(g16
g2
Ntp4747
Rp4748
(dp4749
g20
(dp4750
g0
(g22
g2
Ntp4751
Rp4752
(dp4753
g20
S'protected.formalisms.Rule.MTpost_Contents_a_id'
p4754
sbg0
(g758
g2
Ntp4755
Rp4756
(dp4757
g83
g0
(g84
g2
Ntp4758
Rp4759
(dp4760
g20
Finf
sbsg88
g0
(g60
g2
Ntp4761
Rp4762
(dp4763
g20
I0
sbsg59
g0
(g60
g2
Ntp4764
Rp4765
(dp4766
g20
I0
sbsg95
g0
(g96
g2
Ntp4767
Rp4768
(dp4769
g20
I00
sbsg64
g0
(g50
g2
Ntp4770
Rp4771
(dp4772
g20
S'MTpost_Contents_a_id'
p4773
sbsg65
g1771
sg104
g0
(g105
g2
Ntp4774
Rp4775
(dp4776
g109
g3731
sg83
g0
(g84
g2
Ntp4777
Rp4778
(dp4779
g20
Finf
sbsg88
g0
(g60
g2
Ntp4780
Rp4781
(dp4782
g20
I0
sbsg172
g791
sg95
g0
(g96
g2
Ntp4783
Rp4784
(dp4785
g20
I00
sbsbsg207
g0
(g105
g2
Ntp4786
Rp4787
(dp4788
g109
g4730
sg83
g0
(g84
g2
Ntp4789
Rp4790
(dp4791
g20
Finf
sbsg88
g0
(g60
g2
Ntp4792
Rp4793
(dp4794
g20
I0
sbsg172
g999
sg95
g0
(g96
g2
Ntp4795
Rp4796
(dp4797
g20
I00
sbsbsg66
g0
(g16
g2
Ntp4798
Rp4799
(dp4800
g20
(dp4801
sbsg184
g0
(g185
g2
Ntp4802
Rp4803
(dp4804
g189
g0
(g22
g2
Ntp4805
Rp4806
(dp4807
g20
g1522
sbsbsg194
g0
(g16
g2
Ntp4808
Rp4809
(dp4810
g20
(dp4811
sbsg500
g0
(g16
g2
Ntp4812
Rp4813
(dp4814
g20
(dp4815
sbsg224
g0
(g16
g2
Ntp4816
Rp4817
(dp4818
g20
(dp4819
g0
(g50
g2
Ntp4820
Rp4821
(dp4822
g20
S'attributes.name'
p4823
sbg0
(g233
g2
Ntp4824
Rp4825
(dp4826
g83
g0
(g60
g2
Ntp4827
Rp4828
(dp4829
g20
I1
sbsg88
g0
(g60
g2
Ntp4830
Rp4831
(dp4832
g20
I1
sbsg59
g0
(g60
g2
Ntp4833
Rp4834
(dp4835
g20
I0
sbsg95
g0
(g96
g2
Ntp4836
Rp4837
(dp4838
g20
I00
sbsg64
g4821
sg65
g4756
sg20
g4771
sg66
g0
(g16
g2
Ntp4839
Rp4840
(dp4841
g20
(dp4842
sbsg184
g1013
sg224
g0
(g16
g2
Ntp4843
Rp4844
(dp4845
g20
(dp4846
sbsg268
g1045
sg285
g0
(g16
g2
Ntp4847
Rp4848
(dp4849
g20
(dp4850
sbsbssbsg285
g0
(g16
g2
Ntp4851
Rp4852
(dp4853
g20
(dp4854
sbsbssbsg184
g0
(g203
g2
Ntp4855
Rp4856
(dp4857
g189
g0
(g22
g2
Ntp4858
Rp4859
(dp4860
g20
g1331
sbsbsg224
g0
(g16
g2
Ntp4861
Rp4862
(dp4863
g20
(dp4864
sbsg268
g2361
sg285
g0
(g16
g2
Ntp4865
Rp4866
(dp4867
g20
(dp4868
sbsbsg0
(g50
g2
Ntp4869
Rp4870
(dp4871
g20
S'Association.from_max'
p4872
sbg0
(g233
g2
Ntp4873
Rp4874
(dp4875
g83
g0
(g60
g2
Ntp4876
Rp4877
(dp4878
g20
I1
sbsg88
g0
(g60
g2
Ntp4879
Rp4880
(dp4881
g20
I1
sbsg59
g0
(g60
g2
Ntp4882
Rp4883
(dp4884
g20
I0
sbsg95
g0
(g96
g2
Ntp4885
Rp4886
(dp4887
g20
I00
sbsg64
g4870
sg65
g3731
sg20
g4430
sg66
g0
(g16
g2
Ntp4888
Rp4889
(dp4890
g20
(dp4891
sbsg184
g235
sg224
g0
(g16
g2
Ntp4892
Rp4893
(dp4894
g20
(dp4895
sbsg268
g271
sg285
g0
(g16
g2
Ntp4896
Rp4897
(dp4898
g20
(dp4899
sbsbssbsg500
g0
(g16
g2
Ntp4900
Rp4901
(dp4902
g20
(dp4903
sbsg285
g0
(g16
g2
Ntp4904
Rp4905
(dp4906
g20
(dp4907
g0
(g22
g2
Ntp4908
Rp4909
(dp4910
g20
S'protected.formalisms.Rule.MTpost_Contents_a_id'
p4911
sbg4756
ssbsbssbsg184
g0
(g203
g2
Ntp4912
Rp4913
(dp4914
g189
g0
(g22
g2
Ntp4915
Rp4916
(dp4917
g20
g202
sbsbsg194
g0
(g16
g2
Ntp4918
Rp4919
(dp4920
g20
(dp4921
g0
(g22
g2
Ntp4922
Rp4923
(dp4924
g20
S'protected.formalisms.Rule.MT_Element'
p4925
sbg0
(g203
g2
Ntp4926
Rp4927
(dp4928
g189
g4923
sbssbsg500
g0
(g16
g2
Ntp4929
Rp4930
(dp4931
g20
(dp4932
sbsg224
g0
(g16
g2
Ntp4933
Rp4934
(dp4935
g20
(dp4936
g0
(g50
g2
Ntp4937
Rp4938
(dp4939
g20
S'Class.name'
p4940
sbg0
(g233
g2
Ntp4941
Rp4942
(dp4943
g83
g0
(g60
g2
Ntp4944
Rp4945
(dp4946
g20
I1
sbsg88
g0
(g60
g2
Ntp4947
Rp4948
(dp4949
g20
I1
sbsg59
g0
(g60
g2
Ntp4950
Rp4951
(dp4952
g20
I0
sbsg95
g0
(g96
g2
Ntp4953
Rp4954
(dp4955
g20
I00
sbsg64
g4938
sg65
g3261
sg20
g3276
sg66
g0
(g16
g2
Ntp4956
Rp4957
(dp4958
g20
(dp4959
sbsg184
g663
sg224
g0
(g16
g2
Ntp4960
Rp4961
(dp4962
g20
(dp4963
sbsg268
g695
sg285
g0
(g16
g2
Ntp4964
Rp4965
(dp4966
g20
(dp4967
sbsbsg0
(g50
g2
Ntp4968
Rp4969
(dp4970
g20
S'Class.is_abstract'
p4971
sbg0
(g233
g2
Ntp4972
Rp4973
(dp4974
g83
g0
(g60
g2
Ntp4975
Rp4976
(dp4977
g20
I1
sbsg88
g0
(g60
g2
Ntp4978
Rp4979
(dp4980
g20
I1
sbsg59
g0
(g60
g2
Ntp4981
Rp4982
(dp4983
g20
I0
sbsg95
g0
(g96
g2
Ntp4984
Rp4985
(dp4986
g20
I00
sbsg64
g4969
sg65
g3261
sg20
g3280
sg66
g0
(g16
g2
Ntp4987
Rp4988
(dp4989
g20
(dp4990
sbsg184
g620
sg224
g0
(g16
g2
Ntp4991
Rp4992
(dp4993
g20
(dp4994
sbsg268
g653
sg285
g0
(g16
g2
Ntp4995
Rp4996
(dp4997
g20
(dp4998
sbsbssbsg285
g0
(g16
g2
Ntp4999
Rp5000
(dp5001
g20
(dp5002
g0
(g22
g2
Ntp5003
Rp5004
(dp5005
g20
S'protected.formalisms.Rule.post_i_el'
p5006
sbg3239
sg0
(g22
g2
Ntp5007
Rp5008
(dp5009
g20
S'protected.formalisms.Rule.MTpost_Association'
p5010
sbg3291
ssbsbsg83
g0
(g84
g2
Ntp5011
Rp5012
(dp5013
g20
Finf
sbsg88
g0
(g60
g2
Ntp5014
Rp5015
(dp5016
g20
I0
sbsg172
g1065
sg95
g0
(g96
g2
Ntp5017
Rp5018
(dp5019
g20
I00
sbsbsg207
g0
(g105
g2
Ntp5020
Rp5021
(dp5022
g109
g3105
sg83
g0
(g84
g2
Ntp5023
Rp5024
(dp5025
g20
Finf
sbsg88
g0
(g60
g2
Ntp5026
Rp5027
(dp5028
g20
I0
sbsg172
g1094
sg95
g0
(g96
g2
Ntp5029
Rp5030
(dp5031
g20
I00
sbsbsg66
g0
(g16
g2
Ntp5032
Rp5033
(dp5034
g20
(dp5035
sbsg184
g0
(g185
g2
Ntp5036
Rp5037
(dp5038
g189
g0
(g22
g2
Ntp5039
Rp5040
(dp5041
g20
g2142
sbsbsg194
g0
(g16
g2
Ntp5042
Rp5043
(dp5044
g20
(dp5045
sbsg500
g0
(g16
g2
Ntp5046
Rp5047
(dp5048
g20
(dp5049
sbsg224
g0
(g16
g2
Ntp5050
Rp5051
(dp5052
g20
(dp5053
g0
(g50
g2
Ntp5054
Rp5055
(dp5056
g20
S'Inheritance.name'
p5057
sbg0
(g233
g2
Ntp5058
Rp5059
(dp5060
g83
g0
(g60
g2
Ntp5061
Rp5062
(dp5063
g20
I1
sbsg88
g0
(g60
g2
Ntp5064
Rp5065
(dp5066
g20
I1
sbsg59
g0
(g60
g2
Ntp5067
Rp5068
(dp5069
g20
I0
sbsg95
g0
(g96
g2
Ntp5070
Rp5071
(dp5072
g20
I00
sbsg64
g5055
sg65
g3239
sg20
g3254
sg66
g0
(g16
g2
Ntp5073
Rp5074
(dp5075
g20
(dp5076
sbsg184
g1107
sg224
g0
(g16
g2
Ntp5077
Rp5078
(dp5079
g20
(dp5080
sbsg268
g1139
sg285
g0
(g16
g2
Ntp5081
Rp5082
(dp5083
g20
(dp5084
sbsbssbsg285
g0
(g16
g2
Ntp5085
Rp5086
(dp5087
g20
(dp5088
sbsbsg0
(g22
g2
Ntp5089
Rp5090
(dp5091
g20
S'protected.formalisms.Rule.MT_Association'
p5092
sbg3080
sg0
(g22
g2
Ntp5093
Rp5094
(dp5095
g20
S'protected.formalisms.Rule.assoc_i_el'
p5096
sbg0
(g513
g2
Ntp5097
Rp5098
(dp5099
g83
g0
(g84
g2
Ntp5100
Rp5101
(dp5102
g20
Finf
sbsg88
g0
(g60
g2
Ntp5103
Rp5104
(dp5105
g20
I0
sbsg59
g0
(g60
g2
Ntp5106
Rp5107
(dp5108
g20
I0
sbsg95
g0
(g96
g2
Ntp5109
Rp5110
(dp5111
g20
I00
sbsg64
g0
(g50
g2
Ntp5112
Rp5113
(dp5114
g20
S'assoc_i_el'
p5115
sbsg65
g1771
sg104
g0
(g105
g2
Ntp5116
Rp5117
(dp5118
g109
g3080
sg83
g0
(g84
g2
Ntp5119
Rp5120
(dp5121
g20
Finf
sbsg88
g0
(g60
g2
Ntp5122
Rp5123
(dp5124
g20
I0
sbsg172
g1065
sg95
g0
(g96
g2
Ntp5125
Rp5126
(dp5127
g20
I00
sbsbsg207
g0
(g105
g2
Ntp5128
Rp5129
(dp5130
g109
g3105
sg83
g0
(g84
g2
Ntp5131
Rp5132
(dp5133
g20
Finf
sbsg88
g0
(g60
g2
Ntp5134
Rp5135
(dp5136
g20
I0
sbsg172
g1094
sg95
g0
(g96
g2
Ntp5137
Rp5138
(dp5139
g20
I00
sbsbsg66
g0
(g16
g2
Ntp5140
Rp5141
(dp5142
g20
(dp5143
sbsg184
g0
(g185
g2
Ntp5144
Rp5145
(dp5146
g189
g0
(g22
g2
Ntp5147
Rp5148
(dp5149
g20
g2142
sbsbsg194
g0
(g16
g2
Ntp5150
Rp5151
(dp5152
g20
(dp5153
sbsg500
g0
(g16
g2
Ntp5154
Rp5155
(dp5156
g20
(dp5157
sbsg224
g0
(g16
g2
Ntp5158
Rp5159
(dp5160
g20
(dp5161
g0
(g50
g2
Ntp5162
Rp5163
(dp5164
g20
S'Inheritance.name'
p5165
sbg0
(g233
g2
Ntp5166
Rp5167
(dp5168
g83
g0
(g60
g2
Ntp5169
Rp5170
(dp5171
g20
I1
sbsg88
g0
(g60
g2
Ntp5172
Rp5173
(dp5174
g20
I1
sbsg59
g0
(g60
g2
Ntp5175
Rp5176
(dp5177
g20
I0
sbsg95
g0
(g96
g2
Ntp5178
Rp5179
(dp5180
g20
I00
sbsg64
g5163
sg65
g5098
sg20
g5113
sg66
g0
(g16
g2
Ntp5181
Rp5182
(dp5183
g20
(dp5184
sbsg184
g1107
sg224
g0
(g16
g2
Ntp5185
Rp5186
(dp5187
g20
(dp5188
sbsg268
g1139
sg285
g0
(g16
g2
Ntp5189
Rp5190
(dp5191
g20
(dp5192
sbsbssbsg285
g0
(g16
g2
Ntp5193
Rp5194
(dp5195
g20
(dp5196
sbsbssbsg184
g0
(g203
g2
Ntp5197
Rp5198
(dp5199
g189
g0
(g22
g2
Ntp5200
Rp5201
(dp5202
g20
g202
sbsbsg194
g0
(g16
g2
Ntp5203
Rp5204
(dp5205
g20
(dp5206
sbsg500
g0
(g16
g2
Ntp5207
Rp5208
(dp5209
g20
(dp5210
g0
(g22
g2
Ntp5211
Rp5212
(dp5213
g20
S'protected.formalisms.Rule.MTpre_Element'
p5214
sbg2673
sg0
(g22
g2
Ntp5215
Rp5216
(dp5217
g20
S'protected.formalisms.Rule.MTpost_Element'
p5218
sbg3261
sg0
(g22
g2
Ntp5219
Rp5220
(dp5221
g20
S'protected.formalisms.Rule.MT_Association'
p5222
sbg3080
ssbsg224
g0
(g16
g2
Ntp5223
Rp5224
(dp5225
g20
(dp5226
g0
(g50
g2
Ntp5227
Rp5228
(dp5229
g20
S'MT_label'
p5230
sbg0
(g233
g2
Ntp5231
Rp5232
(dp5233
g83
g0
(g60
g2
Ntp5234
Rp5235
(dp5236
g20
I1
sbsg88
g0
(g60
g2
Ntp5237
Rp5238
(dp5239
g20
I1
sbsg59
g0
(g60
g2
Ntp5240
Rp5241
(dp5242
g20
I1
sbsg95
g0
(g96
g2
Ntp5243
Rp5244
(dp5245
g20
I00
sbsg64
g5228
sg65
g3105
sg249
g0
(g50
g2
Ntp5246
Rp5247
(dp5248
g20
g312
sbsg66
g0
(g16
g2
Ntp5249
Rp5250
(dp5251
g20
(dp5252
g0
(g22
g2
Ntp5253
Rp5254
(dp5255
g20
S'protected.formalisms.Rule.MT_Element_a_MT_label'
p5256
sbg0
(g758
g2
Ntp5257
Rp5258
(dp5259
g83
g0
(g84
g2
Ntp5260
Rp5261
(dp5262
g20
Finf
sbsg88
g0
(g60
g2
Ntp5263
Rp5264
(dp5265
g20
I0
sbsg59
g0
(g60
g2
Ntp5266
Rp5267
(dp5268
g20
I0
sbsg95
g0
(g96
g2
Ntp5269
Rp5270
(dp5271
g20
I00
sbsg64
g0
(g50
g2
Ntp5272
Rp5273
(dp5274
g20
S'MT_Element_a_MT_label'
p5275
sbsg65
g1771
sg104
g0
(g105
g2
Ntp5276
Rp5277
(dp5278
g109
g3105
sg83
g0
(g84
g2
Ntp5279
Rp5280
(dp5281
g20
Finf
sbsg88
g0
(g60
g2
Ntp5282
Rp5283
(dp5284
g20
I0
sbsg172
g791
sg95
g0
(g96
g2
Ntp5285
Rp5286
(dp5287
g20
I00
sbsbsg207
g0
(g105
g2
Ntp5288
Rp5289
(dp5290
g109
g5232
sg83
g0
(g84
g2
Ntp5291
Rp5292
(dp5293
g20
Finf
sbsg88
g0
(g60
g2
Ntp5294
Rp5295
(dp5296
g20
I0
sbsg172
g999
sg95
g0
(g96
g2
Ntp5297
Rp5298
(dp5299
g20
I00
sbsbsg66
g0
(g16
g2
Ntp5300
Rp5301
(dp5302
g20
(dp5303
sbsg184
g0
(g185
g2
Ntp5304
Rp5305
(dp5306
g189
g0
(g22
g2
Ntp5307
Rp5308
(dp5309
g20
g1522
sbsbsg194
g0
(g16
g2
Ntp5310
Rp5311
(dp5312
g20
(dp5313
sbsg500
g0
(g16
g2
Ntp5314
Rp5315
(dp5316
g20
(dp5317
sbsg224
g0
(g16
g2
Ntp5318
Rp5319
(dp5320
g20
(dp5321
g0
(g50
g2
Ntp5322
Rp5323
(dp5324
g20
S'attributes.name'
p5325
sbg0
(g233
g2
Ntp5326
Rp5327
(dp5328
g83
g0
(g60
g2
Ntp5329
Rp5330
(dp5331
g20
I1
sbsg88
g0
(g60
g2
Ntp5332
Rp5333
(dp5334
g20
I1
sbsg59
g0
(g60
g2
Ntp5335
Rp5336
(dp5337
g20
I0
sbsg95
g0
(g96
g2
Ntp5338
Rp5339
(dp5340
g20
I00
sbsg64
g5323
sg65
g5258
sg20
g5273
sg66
g0
(g16
g2
Ntp5341
Rp5342
(dp5343
g20
(dp5344
sbsg184
g1013
sg224
g0
(g16
g2
Ntp5345
Rp5346
(dp5347
g20
(dp5348
sbsg268
g1045
sg285
g0
(g16
g2
Ntp5349
Rp5350
(dp5351
g20
(dp5352
sbsbssbsg285
g0
(g16
g2
Ntp5353
Rp5354
(dp5355
g20
(dp5356
sbsbssbsg184
g0
(g203
g2
Ntp5357
Rp5358
(dp5359
g189
g0
(g22
g2
Ntp5360
Rp5361
(dp5362
g20
g1331
sbsbsg224
g0
(g16
g2
Ntp5363
Rp5364
(dp5365
g20
(dp5366
sbsg268
g2361
sg285
g0
(g16
g2
Ntp5367
Rp5368
(dp5369
g20
(dp5370
sbsbsg0
(g50
g2
Ntp5371
Rp5372
(dp5373
g20
S'Class.name'
p5374
sbg0
(g233
g2
Ntp5375
Rp5376
(dp5377
g83
g0
(g60
g2
Ntp5378
Rp5379
(dp5380
g20
I1
sbsg88
g0
(g60
g2
Ntp5381
Rp5382
(dp5383
g20
I1
sbsg59
g0
(g60
g2
Ntp5384
Rp5385
(dp5386
g20
I0
sbsg95
g0
(g96
g2
Ntp5387
Rp5388
(dp5389
g20
I00
sbsg64
g5372
sg65
g3105
sg20
g3120
sg66
g0
(g16
g2
Ntp5390
Rp5391
(dp5392
g20
(dp5393
sbsg184
g663
sg224
g0
(g16
g2
Ntp5394
Rp5395
(dp5396
g20
(dp5397
sbsg268
g695
sg285
g0
(g16
g2
Ntp5398
Rp5399
(dp5400
g20
(dp5401
sbsbsg0
(g50
g2
Ntp5402
Rp5403
(dp5404
g20
S'Class.is_abstract'
p5405
sbg0
(g233
g2
Ntp5406
Rp5407
(dp5408
g83
g0
(g60
g2
Ntp5409
Rp5410
(dp5411
g20
I1
sbsg88
g0
(g60
g2
Ntp5412
Rp5413
(dp5414
g20
I1
sbsg59
g0
(g60
g2
Ntp5415
Rp5416
(dp5417
g20
I0
sbsg95
g0
(g96
g2
Ntp5418
Rp5419
(dp5420
g20
I00
sbsg64
g5403
sg65
g3105
sg20
g3124
sg66
g0
(g16
g2
Ntp5421
Rp5422
(dp5423
g20
(dp5424
sbsg184
g620
sg224
g0
(g16
g2
Ntp5425
Rp5426
(dp5427
g20
(dp5428
sbsg268
g653
sg285
g0
(g16
g2
Ntp5429
Rp5430
(dp5431
g20
(dp5432
sbsbsg0
(g50
g2
Ntp5433
Rp5434
(dp5435
g20
S'Class.id_field'
p5436
sbg0
(g233
g2
Ntp5437
Rp5438
(dp5439
g83
g0
(g60
g2
Ntp5440
Rp5441
(dp5442
g20
I1
sbsg88
g0
(g60
g2
Ntp5443
Rp5444
(dp5445
g20
I1
sbsg59
g0
(g60
g2
Ntp5446
Rp5447
(dp5448
g20
I0
sbsg95
g0
(g96
g2
Ntp5449
Rp5450
(dp5451
g20
I00
sbsg64
g5434
sg65
g3105
sg20
g0
(g50
g2
Ntp5452
Rp5453
(dp5454
g20
S'MT_Element.id'
p5455
sbsg66
g0
(g16
g2
Ntp5456
Rp5457
(dp5458
g20
(dp5459
sbsg184
g705
sg224
g0
(g16
g2
Ntp5460
Rp5461
(dp5462
g20
(dp5463
sbsg268
g737
sg285
g0
(g16
g2
Ntp5464
Rp5465
(dp5466
g20
(dp5467
sbsbsg0
(g50
g2
Ntp5468
Rp5469
(dp5470
g20
g1298
sbg0
(g233
g2
Ntp5471
Rp5472
(dp5473
g83
g0
(g60
g2
Ntp5474
Rp5475
(dp5476
g20
I1
sbsg88
g0
(g60
g2
Ntp5477
Rp5478
(dp5479
g20
I1
sbsg59
g0
(g60
g2
Ntp5480
Rp5481
(dp5482
g20
I1
sbsg95
g0
(g96
g2
Ntp5483
Rp5484
(dp5485
g20
I00
sbsg64
g5469
sg65
g3105
sg249
g0
(g50
g2
Ntp5486
Rp5487
(dp5488
g20
g312
sbsg66
g0
(g16
g2
Ntp5489
Rp5490
(dp5491
g20
(dp5492
g0
(g22
g2
Ntp5493
Rp5494
(dp5495
g20
S'protected.formalisms.Rule.MT_Element_a_id'
p5496
sbg0
(g758
g2
Ntp5497
Rp5498
(dp5499
g83
g0
(g84
g2
Ntp5500
Rp5501
(dp5502
g20
Finf
sbsg88
g0
(g60
g2
Ntp5503
Rp5504
(dp5505
g20
I0
sbsg59
g0
(g60
g2
Ntp5506
Rp5507
(dp5508
g20
I0
sbsg95
g0
(g96
g2
Ntp5509
Rp5510
(dp5511
g20
I00
sbsg64
g0
(g50
g2
Ntp5512
Rp5513
(dp5514
g20
S'MT_Element_a_id'
p5515
sbsg65
g1771
sg104
g0
(g105
g2
Ntp5516
Rp5517
(dp5518
g109
g3105
sg83
g0
(g84
g2
Ntp5519
Rp5520
(dp5521
g20
Finf
sbsg88
g0
(g60
g2
Ntp5522
Rp5523
(dp5524
g20
I0
sbsg172
g791
sg95
g0
(g96
g2
Ntp5525
Rp5526
(dp5527
g20
I00
sbsbsg207
g0
(g105
g2
Ntp5528
Rp5529
(dp5530
g109
g5472
sg83
g0
(g84
g2
Ntp5531
Rp5532
(dp5533
g20
Finf
sbsg88
g0
(g60
g2
Ntp5534
Rp5535
(dp5536
g20
I0
sbsg172
g999
sg95
g0
(g96
g2
Ntp5537
Rp5538
(dp5539
g20
I00
sbsbsg66
g0
(g16
g2
Ntp5540
Rp5541
(dp5542
g20
(dp5543
sbsg184
g0
(g185
g2
Ntp5544
Rp5545
(dp5546
g189
g0
(g22
g2
Ntp5547
Rp5548
(dp5549
g20
g1522
sbsbsg194
g0
(g16
g2
Ntp5550
Rp5551
(dp5552
g20
(dp5553
sbsg500
g0
(g16
g2
Ntp5554
Rp5555
(dp5556
g20
(dp5557
sbsg224
g0
(g16
g2
Ntp5558
Rp5559
(dp5560
g20
(dp5561
g0
(g50
g2
Ntp5562
Rp5563
(dp5564
g20
S'attributes.name'
p5565
sbg0
(g233
g2
Ntp5566
Rp5567
(dp5568
g83
g0
(g60
g2
Ntp5569
Rp5570
(dp5571
g20
I1
sbsg88
g0
(g60
g2
Ntp5572
Rp5573
(dp5574
g20
I1
sbsg59
g0
(g60
g2
Ntp5575
Rp5576
(dp5577
g20
I0
sbsg95
g0
(g96
g2
Ntp5578
Rp5579
(dp5580
g20
I00
sbsg64
g5563
sg65
g5498
sg20
g5513
sg66
g0
(g16
g2
Ntp5581
Rp5582
(dp5583
g20
(dp5584
sbsg184
g1013
sg224
g0
(g16
g2
Ntp5585
Rp5586
(dp5587
g20
(dp5588
sbsg268
g1045
sg285
g0
(g16
g2
Ntp5589
Rp5590
(dp5591
g20
(dp5592
sbsbssbsg285
g0
(g16
g2
Ntp5593
Rp5594
(dp5595
g20
(dp5596
sbsbssbsg184
g0
(g203
g2
Ntp5597
Rp5598
(dp5599
g189
g0
(g22
g2
Ntp5600
Rp5601
(dp5602
g20
g1331
sbsbsg224
g0
(g16
g2
Ntp5603
Rp5604
(dp5605
g20
(dp5606
sbsg268
g2361
sg285
g0
(g16
g2
Ntp5607
Rp5608
(dp5609
g20
(dp5610
sbsbssbsg285
g0
(g16
g2
Ntp5611
Rp5612
(dp5613
g20
(dp5614
g0
(g22
g2
Ntp5615
Rp5616
(dp5617
g20
S'protected.formalisms.Rule.MT_Element_a_id'
p5618
sbg5498
sg0
(g22
g2
Ntp5619
Rp5620
(dp5621
g20
S'protected.formalisms.Rule.MT_Element_a_MT_label'
p5622
sbg5258
sg0
(g22
g2
Ntp5623
Rp5624
(dp5625
g20
S'protected.formalisms.Rule.MT_Association'
p5626
sbg3080
ssbsbsg83
g0
(g84
g2
Ntp5627
Rp5628
(dp5629
g20
Finf
sbsg88
g0
(g60
g2
Ntp5630
Rp5631
(dp5632
g20
I0
sbsg172
g0
(g50
g2
Ntp5633
Rp5634
(dp5635
g20
g2740
sbsg95
g0
(g96
g2
Ntp5636
Rp5637
(dp5638
g20
I00
sbsbsg66
g0
(g16
g2
Ntp5639
Rp5640
(dp5641
g20
(dp5642
g0
(g22
g2
Ntp5643
Rp5644
(dp5645
g20
S'protected.formalisms.Rule.pre_i_assoc'
p5646
sbg3046
sg0
(g22
g2
Ntp5647
Rp5648
(dp5649
g20
S'protected.formalisms.Rule.post_i_assoc'
p5650
sbg3627
ssbsg184
g0
(g185
g2
Ntp5651
Rp5652
(dp5653
g189
g0
(g22
g2
Ntp5654
Rp5655
(dp5656
g20
g2664
sbsbsg194
g0
(g16
g2
Ntp5657
Rp5658
(dp5659
g20
(dp5660
g0
(g22
g2
Ntp5661
Rp5662
(dp5663
g20
g4925
sbg0
(g203
g2
Ntp5664
Rp5665
(dp5666
g189
g5662
sbssbsg207
g0
(g105
g2
Ntp5667
Rp5668
(dp5669
g109
g3105
sg83
g0
(g84
g2
Ntp5670
Rp5671
(dp5672
g20
Finf
sbsg88
g0
(g60
g2
Ntp5673
Rp5674
(dp5675
g20
I0
sbsg172
g0
(g50
g2
Ntp5676
Rp5677
(dp5678
g20
g2777
sbsg95
g0
(g96
g2
Ntp5679
Rp5680
(dp5681
g20
I00
sbsbsg224
g0
(g16
g2
Ntp5682
Rp5683
(dp5684
g20
(dp5685
g0
(g50
g2
Ntp5686
Rp5687
(dp5688
g20
S'Association.to_min'
p5689
sbg0
(g233
g2
Ntp5690
Rp5691
(dp5692
g83
g0
(g60
g2
Ntp5693
Rp5694
(dp5695
g20
I1
sbsg88
g0
(g60
g2
Ntp5696
Rp5697
(dp5698
g20
I1
sbsg59
g0
(g60
g2
Ntp5699
Rp5700
(dp5701
g20
I0
sbsg95
g0
(g96
g2
Ntp5702
Rp5703
(dp5704
g20
I00
sbsg64
g5687
sg65
g3080
sg20
g5674
sg66
g0
(g16
g2
Ntp5705
Rp5706
(dp5707
g20
(dp5708
sbsg184
g463
sg224
g0
(g16
g2
Ntp5709
Rp5710
(dp5711
g20
(dp5712
sbsg268
g495
sg285
g0
(g16
g2
Ntp5713
Rp5714
(dp5715
g20
(dp5716
sbsbsg0
(g50
g2
Ntp5717
Rp5718
(dp5719
g20
S'Association.to_port'
p5720
sbg0
(g233
g2
Ntp5721
Rp5722
(dp5723
g83
g0
(g60
g2
Ntp5724
Rp5725
(dp5726
g20
I1
sbsg88
g0
(g60
g2
Ntp5727
Rp5728
(dp5729
g20
I1
sbsg59
g0
(g60
g2
Ntp5730
Rp5731
(dp5732
g20
I0
sbsg95
g0
(g96
g2
Ntp5733
Rp5734
(dp5735
g20
I00
sbsg64
g5718
sg65
g3080
sg20
g5677
sg66
g0
(g16
g2
Ntp5736
Rp5737
(dp5738
g20
(dp5739
sbsg184
g295
sg224
g0
(g16
g2
Ntp5740
Rp5741
(dp5742
g20
(dp5743
sbsg268
g329
sg285
g0
(g16
g2
Ntp5744
Rp5745
(dp5746
g20
(dp5747
sbsbsg0
(g50
g2
Ntp5748
Rp5749
(dp5750
g20
S'Association.from_port'
p5751
sbg0
(g233
g2
Ntp5752
Rp5753
(dp5754
g83
g0
(g60
g2
Ntp5755
Rp5756
(dp5757
g20
I1
sbsg88
g0
(g60
g2
Ntp5758
Rp5759
(dp5760
g20
I1
sbsg59
g0
(g60
g2
Ntp5761
Rp5762
(dp5763
g20
I0
sbsg95
g0
(g96
g2
Ntp5764
Rp5765
(dp5766
g20
I00
sbsg64
g5749
sg65
g3080
sg20
g5634
sg66
g0
(g16
g2
Ntp5767
Rp5768
(dp5769
g20
(dp5770
sbsg184
g421
sg224
g0
(g16
g2
Ntp5771
Rp5772
(dp5773
g20
(dp5774
sbsg268
g453
sg285
g0
(g16
g2
Ntp5775
Rp5776
(dp5777
g20
(dp5778
sbsbsg0
(g50
g2
Ntp5779
Rp5780
(dp5781
g20
S'Association.from_min'
p5782
sbg0
(g233
g2
Ntp5783
Rp5784
(dp5785
g83
g0
(g60
g2
Ntp5786
Rp5787
(dp5788
g20
I1
sbsg88
g0
(g60
g2
Ntp5789
Rp5790
(dp5791
g20
I1
sbsg59
g0
(g60
g2
Ntp5792
Rp5793
(dp5794
g20
I0
sbsg95
g0
(g96
g2
Ntp5795
Rp5796
(dp5797
g20
I00
sbsg64
g5780
sg65
g3080
sg20
g5631
sg66
g0
(g16
g2
Ntp5798
Rp5799
(dp5800
g20
(dp5801
sbsg184
g379
sg224
g0
(g16
g2
Ntp5802
Rp5803
(dp5804
g20
(dp5805
sbsg268
g411
sg285
g0
(g16
g2
Ntp5806
Rp5807
(dp5808
g20
(dp5809
sbsbsg0
(g50
g2
Ntp5810
Rp5811
(dp5812
g20
S'Class.name'
p5813
sbg0
(g233
g2
Ntp5814
Rp5815
(dp5816
g83
g0
(g60
g2
Ntp5817
Rp5818
(dp5819
g20
I1
sbsg88
g0
(g60
g2
Ntp5820
Rp5821
(dp5822
g20
I1
sbsg59
g0
(g60
g2
Ntp5823
Rp5824
(dp5825
g20
I0
sbsg95
g0
(g96
g2
Ntp5826
Rp5827
(dp5828
g20
I00
sbsg64
g5811
sg65
g3080
sg20
g3095
sg66
g0
(g16
g2
Ntp5829
Rp5830
(dp5831
g20
(dp5832
sbsg184
g663
sg224
g0
(g16
g2
Ntp5833
Rp5834
(dp5835
g20
(dp5836
sbsg268
g695
sg285
g0
(g16
g2
Ntp5837
Rp5838
(dp5839
g20
(dp5840
sbsbsg0
(g50
g2
Ntp5841
Rp5842
(dp5843
g20
S'Class.is_abstract'
p5844
sbg0
(g233
g2
Ntp5845
Rp5846
(dp5847
g83
g0
(g60
g2
Ntp5848
Rp5849
(dp5850
g20
I1
sbsg88
g0
(g60
g2
Ntp5851
Rp5852
(dp5853
g20
I1
sbsg59
g0
(g60
g2
Ntp5854
Rp5855
(dp5856
g20
I0
sbsg95
g0
(g96
g2
Ntp5857
Rp5858
(dp5859
g20
I00
sbsg64
g5842
sg65
g3080
sg20
g3099
sg66
g0
(g16
g2
Ntp5860
Rp5861
(dp5862
g20
(dp5863
sbsg184
g620
sg224
g0
(g16
g2
Ntp5864
Rp5865
(dp5866
g20
(dp5867
sbsg268
g653
sg285
g0
(g16
g2
Ntp5868
Rp5869
(dp5870
g20
(dp5871
sbsbsg0
(g50
g2
Ntp5872
Rp5873
(dp5874
g20
S'Association.to_max'
p5875
sbg0
(g233
g2
Ntp5876
Rp5877
(dp5878
g83
g0
(g60
g2
Ntp5879
Rp5880
(dp5881
g20
I1
sbsg88
g0
(g60
g2
Ntp5882
Rp5883
(dp5884
g20
I1
sbsg59
g0
(g60
g2
Ntp5885
Rp5886
(dp5887
g20
I0
sbsg95
g0
(g96
g2
Ntp5888
Rp5889
(dp5890
g20
I00
sbsg64
g5873
sg65
g3080
sg20
g5671
sg66
g0
(g16
g2
Ntp5891
Rp5892
(dp5893
g20
(dp5894
sbsg184
g339
sg224
g0
(g16
g2
Ntp5895
Rp5896
(dp5897
g20
(dp5898
sbsg268
g271
sg285
g0
(g16
g2
Ntp5899
Rp5900
(dp5901
g20
(dp5902
sbsbsg0
(g50
g2
Ntp5903
Rp5904
(dp5905
g20
S'Association.from_max'
p5906
sbg0
(g233
g2
Ntp5907
Rp5908
(dp5909
g83
g0
(g60
g2
Ntp5910
Rp5911
(dp5912
g20
I1
sbsg88
g0
(g60
g2
Ntp5913
Rp5914
(dp5915
g20
I1
sbsg59
g0
(g60
g2
Ntp5916
Rp5917
(dp5918
g20
I0
sbsg95
g0
(g96
g2
Ntp5919
Rp5920
(dp5921
g20
I00
sbsg64
g5904
sg65
g3080
sg20
g5628
sg66
g0
(g16
g2
Ntp5922
Rp5923
(dp5924
g20
(dp5925
sbsg184
g235
sg224
g0
(g16
g2
Ntp5926
Rp5927
(dp5928
g20
(dp5929
sbsg268
g271
sg285
g0
(g16
g2
Ntp5930
Rp5931
(dp5932
g20
(dp5933
sbsbssbsg500
g0
(g16
g2
Ntp5934
Rp5935
(dp5936
g20
(dp5937
g0
(g22
g2
Ntp5938
Rp5939
(dp5940
g20
S'protected.formalisms.Rule.MTpost_Association'
p5941
sbg3291
sg0
(g22
g2
Ntp5942
Rp5943
(dp5944
g20
S'protected.formalisms.Rule.MTpre_Association'
p5945
sbg2707
ssbsg285
g0
(g16
g2
Ntp5946
Rp5947
(dp5948
g20
(dp5949
g0
(g22
g2
Ntp5950
Rp5951
(dp5952
g20
S'protected.formalisms.Rule.assoc_i_el'
p5953
sbg5098
ssbsbsg83
g0
(g84
g2
Ntp5954
Rp5955
(dp5956
g20
Finf
sbsg88
g0
(g60
g2
Ntp5957
Rp5958
(dp5959
g20
I0
sbsg172
g1094
sg95
g0
(g96
g2
Ntp5960
Rp5961
(dp5962
g20
I00
sbsbsg66
g0
(g16
g2
Ntp5963
Rp5964
(dp5965
g20
(dp5966
sbsg184
g0
(g185
g2
Ntp5967
Rp5968
(dp5969
g189
g0
(g22
g2
Ntp5970
Rp5971
(dp5972
g20
g2142
sbsbsg194
g0
(g16
g2
Ntp5973
Rp5974
(dp5975
g20
(dp5976
sbsg500
g0
(g16
g2
Ntp5977
Rp5978
(dp5979
g20
(dp5980
sbsg224
g0
(g16
g2
Ntp5981
Rp5982
(dp5983
g20
(dp5984
g0
(g50
g2
Ntp5985
Rp5986
(dp5987
g20
S'Inheritance.name'
p5988
sbg0
(g233
g2
Ntp5989
Rp5990
(dp5991
g83
g0
(g60
g2
Ntp5992
Rp5993
(dp5994
g20
I1
sbsg88
g0
(g60
g2
Ntp5995
Rp5996
(dp5997
g20
I1
sbsg59
g0
(g60
g2
Ntp5998
Rp5999
(dp6000
g20
I0
sbsg95
g0
(g96
g2
Ntp6001
Rp6002
(dp6003
g20
I00
sbsg64
g5986
sg65
g3046
sg20
g3061
sg66
g0
(g16
g2
Ntp6004
Rp6005
(dp6006
g20
(dp6007
sbsg184
g1107
sg224
g0
(g16
g2
Ntp6008
Rp6009
(dp6010
g20
(dp6011
sbsg268
g1139
sg285
g0
(g16
g2
Ntp6012
Rp6013
(dp6014
g20
(dp6015
sbsbssbsg285
g0
(g16
g2
Ntp6016
Rp6017
(dp6018
g20
(dp6019
sbsbssbsbssbsg184
g0
(g203
g2
Ntp6020
Rp6021
(dp6022
g189
g0
(g22
g2
Ntp6023
Rp6024
(dp6025
g20
g202
sbsbsg194
g0
(g16
g2
Ntp6026
Rp6027
(dp6028
g20
(dp6029
g0
(g22
g2
Ntp6030
Rp6031
(dp6032
g20
g4925
sbg0
(g203
g2
Ntp6033
Rp6034
(dp6035
g189
g6031
sbssbsg500
g0
(g16
g2
Ntp6036
Rp6037
(dp6038
g20
(dp6039
sbsg224
g0
(g16
g2
Ntp6040
Rp6041
(dp6042
g20
(dp6043
g0
(g50
g2
Ntp6044
Rp6045
(dp6046
g20
S'Class.name'
p6047
sbg0
(g233
g2
Ntp6048
Rp6049
(dp6050
g83
g0
(g60
g2
Ntp6051
Rp6052
(dp6053
g20
I1
sbsg88
g0
(g60
g2
Ntp6054
Rp6055
(dp6056
g20
I1
sbsg59
g0
(g60
g2
Ntp6057
Rp6058
(dp6059
g20
I0
sbsg95
g0
(g96
g2
Ntp6060
Rp6061
(dp6062
g20
I00
sbsg64
g6045
sg65
g2673
sg20
g2688
sg66
g0
(g16
g2
Ntp6063
Rp6064
(dp6065
g20
(dp6066
sbsg184
g663
sg224
g0
(g16
g2
Ntp6067
Rp6068
(dp6069
g20
(dp6070
sbsg268
g695
sg285
g0
(g16
g2
Ntp6071
Rp6072
(dp6073
g20
(dp6074
sbsbsg0
(g50
g2
Ntp6075
Rp6076
(dp6077
g20
S'Class.is_abstract'
p6078
sbg0
(g233
g2
Ntp6079
Rp6080
(dp6081
g83
g0
(g60
g2
Ntp6082
Rp6083
(dp6084
g20
I1
sbsg88
g0
(g60
g2
Ntp6085
Rp6086
(dp6087
g20
I1
sbsg59
g0
(g60
g2
Ntp6088
Rp6089
(dp6090
g20
I0
sbsg95
g0
(g96
g2
Ntp6091
Rp6092
(dp6093
g20
I00
sbsg64
g6076
sg65
g2673
sg20
g2692
sg66
g0
(g16
g2
Ntp6094
Rp6095
(dp6096
g20
(dp6097
sbsg184
g620
sg224
g0
(g16
g2
Ntp6098
Rp6099
(dp6100
g20
(dp6101
sbsg268
g653
sg285
g0
(g16
g2
Ntp6102
Rp6103
(dp6104
g20
(dp6105
sbsbssbsg285
g0
(g16
g2
Ntp6106
Rp6107
(dp6108
g20
(dp6109
g0
(g22
g2
Ntp6110
Rp6111
(dp6112
g20
S'protected.formalisms.Rule.pre_i_el'
p6113
sbg3135
sg0
(g22
g2
Ntp6114
Rp6115
(dp6116
g20
S'protected.formalisms.Rule.MTpre_Association'
p6117
sbg2707
ssbsbsg83
g0
(g84
g2
Ntp6118
Rp6119
(dp6120
g20
Finf
sbsg88
g0
(g60
g2
Ntp6121
Rp6122
(dp6123
g20
I0
sbsg172
g0
(g50
g2
Ntp6124
Rp6125
(dp6126
g20
g2777
sbsg95
g0
(g96
g2
Ntp6127
Rp6128
(dp6129
g20
I00
sbsbsg224
g0
(g16
g2
Ntp6130
Rp6131
(dp6132
g20
(dp6133
g0
(g50
g2
Ntp6134
Rp6135
(dp6136
g20
S'Association.to_min'
p6137
sbg0
(g233
g2
Ntp6138
Rp6139
(dp6140
g83
g0
(g60
g2
Ntp6141
Rp6142
(dp6143
g20
I1
sbsg88
g0
(g60
g2
Ntp6144
Rp6145
(dp6146
g20
I1
sbsg59
g0
(g60
g2
Ntp6147
Rp6148
(dp6149
g20
I0
sbsg95
g0
(g96
g2
Ntp6150
Rp6151
(dp6152
g20
I00
sbsg64
g6135
sg65
g2617
sg20
g6122
sg66
g0
(g16
g2
Ntp6153
Rp6154
(dp6155
g20
(dp6156
sbsg184
g463
sg224
g0
(g16
g2
Ntp6157
Rp6158
(dp6159
g20
(dp6160
sbsg268
g495
sg285
g0
(g16
g2
Ntp6161
Rp6162
(dp6163
g20
(dp6164
sbsbsg0
(g50
g2
Ntp6165
Rp6166
(dp6167
g20
S'Association.to_port'
p6168
sbg0
(g233
g2
Ntp6169
Rp6170
(dp6171
g83
g0
(g60
g2
Ntp6172
Rp6173
(dp6174
g20
I1
sbsg88
g0
(g60
g2
Ntp6175
Rp6176
(dp6177
g20
I1
sbsg59
g0
(g60
g2
Ntp6178
Rp6179
(dp6180
g20
I0
sbsg95
g0
(g96
g2
Ntp6181
Rp6182
(dp6183
g20
I00
sbsg64
g6166
sg65
g2617
sg20
g6125
sg66
g0
(g16
g2
Ntp6184
Rp6185
(dp6186
g20
(dp6187
sbsg184
g295
sg224
g0
(g16
g2
Ntp6188
Rp6189
(dp6190
g20
(dp6191
sbsg268
g329
sg285
g0
(g16
g2
Ntp6192
Rp6193
(dp6194
g20
(dp6195
sbsbsg0
(g50
g2
Ntp6196
Rp6197
(dp6198
g20
S'Association.from_port'
p6199
sbg0
(g233
g2
Ntp6200
Rp6201
(dp6202
g83
g0
(g60
g2
Ntp6203
Rp6204
(dp6205
g20
I1
sbsg88
g0
(g60
g2
Ntp6206
Rp6207
(dp6208
g20
I1
sbsg59
g0
(g60
g2
Ntp6209
Rp6210
(dp6211
g20
I0
sbsg95
g0
(g96
g2
Ntp6212
Rp6213
(dp6214
g20
I00
sbsg64
g6197
sg65
g2617
sg20
g2648
sg66
g0
(g16
g2
Ntp6215
Rp6216
(dp6217
g20
(dp6218
sbsg184
g421
sg224
g0
(g16
g2
Ntp6219
Rp6220
(dp6221
g20
(dp6222
sbsg268
g453
sg285
g0
(g16
g2
Ntp6223
Rp6224
(dp6225
g20
(dp6226
sbsbsg0
(g50
g2
Ntp6227
Rp6228
(dp6229
g20
S'Association.from_min'
p6230
sbg0
(g233
g2
Ntp6231
Rp6232
(dp6233
g83
g0
(g60
g2
Ntp6234
Rp6235
(dp6236
g20
I1
sbsg88
g0
(g60
g2
Ntp6237
Rp6238
(dp6239
g20
I1
sbsg59
g0
(g60
g2
Ntp6240
Rp6241
(dp6242
g20
I0
sbsg95
g0
(g96
g2
Ntp6243
Rp6244
(dp6245
g20
I00
sbsg64
g6228
sg65
g2617
sg20
g2645
sg66
g0
(g16
g2
Ntp6246
Rp6247
(dp6248
g20
(dp6249
sbsg184
g379
sg224
g0
(g16
g2
Ntp6250
Rp6251
(dp6252
g20
(dp6253
sbsg268
g411
sg285
g0
(g16
g2
Ntp6254
Rp6255
(dp6256
g20
(dp6257
sbsbsg0
(g50
g2
Ntp6258
Rp6259
(dp6260
g20
S'Class.id_field'
p6261
sbg0
(g233
g2
Ntp6262
Rp6263
(dp6264
g83
g0
(g60
g2
Ntp6265
Rp6266
(dp6267
g20
I1
sbsg88
g0
(g60
g2
Ntp6268
Rp6269
(dp6270
g20
I1
sbsg59
g0
(g60
g2
Ntp6271
Rp6272
(dp6273
g20
I0
sbsg95
g0
(g96
g2
Ntp6274
Rp6275
(dp6276
g20
I00
sbsg64
g6259
sg65
g2617
sg20
g0
(g50
g2
Ntp6277
Rp6278
(dp6279
g20
S'MTpre_Contents.id'
p6280
sbsg66
g0
(g16
g2
Ntp6281
Rp6282
(dp6283
g20
(dp6284
sbsg184
g705
sg224
g0
(g16
g2
Ntp6285
Rp6286
(dp6287
g20
(dp6288
sbsg268
g737
sg285
g0
(g16
g2
Ntp6289
Rp6290
(dp6291
g20
(dp6292
sbsbsg0
(g50
g2
Ntp6293
Rp6294
(dp6295
g20
S'Class.name'
p6296
sbg0
(g233
g2
Ntp6297
Rp6298
(dp6299
g83
g0
(g60
g2
Ntp6300
Rp6301
(dp6302
g20
I1
sbsg88
g0
(g60
g2
Ntp6303
Rp6304
(dp6305
g20
I1
sbsg59
g0
(g60
g2
Ntp6306
Rp6307
(dp6308
g20
I0
sbsg95
g0
(g96
g2
Ntp6309
Rp6310
(dp6311
g20
I00
sbsg64
g6294
sg65
g2617
sg20
g2632
sg66
g0
(g16
g2
Ntp6312
Rp6313
(dp6314
g20
(dp6315
sbsg184
g663
sg224
g0
(g16
g2
Ntp6316
Rp6317
(dp6318
g20
(dp6319
sbsg268
g695
sg285
g0
(g16
g2
Ntp6320
Rp6321
(dp6322
g20
(dp6323
sbsbsg0
(g50
g2
Ntp6324
Rp6325
(dp6326
g20
S'Class.is_abstract'
p6327
sbg0
(g233
g2
Ntp6328
Rp6329
(dp6330
g83
g0
(g60
g2
Ntp6331
Rp6332
(dp6333
g20
I1
sbsg88
g0
(g60
g2
Ntp6334
Rp6335
(dp6336
g20
I1
sbsg59
g0
(g60
g2
Ntp6337
Rp6338
(dp6339
g20
I0
sbsg95
g0
(g96
g2
Ntp6340
Rp6341
(dp6342
g20
I00
sbsg64
g6325
sg65
g2617
sg20
g2636
sg66
g0
(g16
g2
Ntp6343
Rp6344
(dp6345
g20
(dp6346
sbsg184
g620
sg224
g0
(g16
g2
Ntp6347
Rp6348
(dp6349
g20
(dp6350
sbsg268
g653
sg285
g0
(g16
g2
Ntp6351
Rp6352
(dp6353
g20
(dp6354
sbsbsg0
(g50
g2
Ntp6355
Rp6356
(dp6357
g20
S'Association.to_max'
p6358
sbg0
(g233
g2
Ntp6359
Rp6360
(dp6361
g83
g0
(g60
g2
Ntp6362
Rp6363
(dp6364
g20
I1
sbsg88
g0
(g60
g2
Ntp6365
Rp6366
(dp6367
g20
I1
sbsg59
g0
(g60
g2
Ntp6368
Rp6369
(dp6370
g20
I0
sbsg95
g0
(g96
g2
Ntp6371
Rp6372
(dp6373
g20
I00
sbsg64
g6356
sg65
g2617
sg20
g6119
sg66
g0
(g16
g2
Ntp6374
Rp6375
(dp6376
g20
(dp6377
sbsg184
g339
sg224
g0
(g16
g2
Ntp6378
Rp6379
(dp6380
g20
(dp6381
sbsg268
g271
sg285
g0
(g16
g2
Ntp6382
Rp6383
(dp6384
g20
(dp6385
sbsbsg0
(g50
g2
Ntp6386
Rp6387
(dp6388
g20
g1298
sbg0
(g233
g2
Ntp6389
Rp6390
(dp6391
g83
g0
(g60
g2
Ntp6392
Rp6393
(dp6394
g20
I1
sbsg88
g0
(g60
g2
Ntp6395
Rp6396
(dp6397
g20
I1
sbsg59
g0
(g60
g2
Ntp6398
Rp6399
(dp6400
g20
I1
sbsg95
g0
(g96
g2
Ntp6401
Rp6402
(dp6403
g20
I00
sbsg64
g6387
sg65
g2617
sg249
g0
(g50
g2
Ntp6404
Rp6405
(dp6406
g20
g312
sbsg66
g0
(g16
g2
Ntp6407
Rp6408
(dp6409
g20
(dp6410
g0
(g22
g2
Ntp6411
Rp6412
(dp6413
g20
S'protected.formalisms.Rule.MTpre_Contents_a_id'
p6414
sbg0
(g758
g2
Ntp6415
Rp6416
(dp6417
g83
g0
(g84
g2
Ntp6418
Rp6419
(dp6420
g20
Finf
sbsg88
g0
(g60
g2
Ntp6421
Rp6422
(dp6423
g20
I0
sbsg59
g0
(g60
g2
Ntp6424
Rp6425
(dp6426
g20
I0
sbsg95
g0
(g96
g2
Ntp6427
Rp6428
(dp6429
g20
I00
sbsg64
g0
(g50
g2
Ntp6430
Rp6431
(dp6432
g20
S'MTpre_Contents_a_id'
p6433
sbsg65
g1771
sg104
g0
(g105
g2
Ntp6434
Rp6435
(dp6436
g109
g2617
sg83
g0
(g84
g2
Ntp6437
Rp6438
(dp6439
g20
Finf
sbsg88
g0
(g60
g2
Ntp6440
Rp6441
(dp6442
g20
I0
sbsg172
g791
sg95
g0
(g96
g2
Ntp6443
Rp6444
(dp6445
g20
I00
sbsbsg207
g0
(g105
g2
Ntp6446
Rp6447
(dp6448
g109
g6390
sg83
g0
(g84
g2
Ntp6449
Rp6450
(dp6451
g20
Finf
sbsg88
g0
(g60
g2
Ntp6452
Rp6453
(dp6454
g20
I0
sbsg172
g999
sg95
g0
(g96
g2
Ntp6455
Rp6456
(dp6457
g20
I00
sbsbsg66
g0
(g16
g2
Ntp6458
Rp6459
(dp6460
g20
(dp6461
sbsg184
g0
(g185
g2
Ntp6462
Rp6463
(dp6464
g189
g0
(g22
g2
Ntp6465
Rp6466
(dp6467
g20
g1522
sbsbsg194
g0
(g16
g2
Ntp6468
Rp6469
(dp6470
g20
(dp6471
sbsg500
g0
(g16
g2
Ntp6472
Rp6473
(dp6474
g20
(dp6475
sbsg224
g0
(g16
g2
Ntp6476
Rp6477
(dp6478
g20
(dp6479
g0
(g50
g2
Ntp6480
Rp6481
(dp6482
g20
S'attributes.name'
p6483
sbg0
(g233
g2
Ntp6484
Rp6485
(dp6486
g83
g0
(g60
g2
Ntp6487
Rp6488
(dp6489
g20
I1
sbsg88
g0
(g60
g2
Ntp6490
Rp6491
(dp6492
g20
I1
sbsg59
g0
(g60
g2
Ntp6493
Rp6494
(dp6495
g20
I0
sbsg95
g0
(g96
g2
Ntp6496
Rp6497
(dp6498
g20
I00
sbsg64
g6481
sg65
g6416
sg20
g6431
sg66
g0
(g16
g2
Ntp6499
Rp6500
(dp6501
g20
(dp6502
sbsg184
g1013
sg224
g0
(g16
g2
Ntp6503
Rp6504
(dp6505
g20
(dp6506
sbsg268
g1045
sg285
g0
(g16
g2
Ntp6507
Rp6508
(dp6509
g20
(dp6510
sbsbssbsg285
g0
(g16
g2
Ntp6511
Rp6512
(dp6513
g20
(dp6514
sbsbssbsg184
g0
(g203
g2
Ntp6515
Rp6516
(dp6517
g189
g0
(g22
g2
Ntp6518
Rp6519
(dp6520
g20
g1331
sbsbsg224
g0
(g16
g2
Ntp6521
Rp6522
(dp6523
g20
(dp6524
sbsg268
g2361
sg285
g0
(g16
g2
Ntp6525
Rp6526
(dp6527
g20
(dp6528
sbsbsg0
(g50
g2
Ntp6529
Rp6530
(dp6531
g20
S'Association.from_max'
p6532
sbg0
(g233
g2
Ntp6533
Rp6534
(dp6535
g83
g0
(g60
g2
Ntp6536
Rp6537
(dp6538
g20
I1
sbsg88
g0
(g60
g2
Ntp6539
Rp6540
(dp6541
g20
I1
sbsg59
g0
(g60
g2
Ntp6542
Rp6543
(dp6544
g20
I0
sbsg95
g0
(g96
g2
Ntp6545
Rp6546
(dp6547
g20
I00
sbsg64
g6530
sg65
g2617
sg20
g2642
sg66
g0
(g16
g2
Ntp6548
Rp6549
(dp6550
g20
(dp6551
sbsg184
g235
sg224
g0
(g16
g2
Ntp6552
Rp6553
(dp6554
g20
(dp6555
sbsg268
g271
sg285
g0
(g16
g2
Ntp6556
Rp6557
(dp6558
g20
(dp6559
sbsbssbsg500
g0
(g16
g2
Ntp6560
Rp6561
(dp6562
g20
(dp6563
sbsg285
g0
(g16
g2
Ntp6564
Rp6565
(dp6566
g20
(dp6567
g0
(g22
g2
Ntp6568
Rp6569
(dp6570
g20
S'protected.formalisms.Rule.MTpre_Contents_a_id'
p6571
sbg6416
ssbsbsg0
(g22
g2
Ntp6572
Rp6573
(dp6574
g20
S'protected.formalisms.Rule.MTpre_Pattern_a_pattern_name'
p6575
sbg2251
sg0
(g22
g2
Ntp6576
Rp6577
(dp6578
g20
S'protected.formalisms.Rule.MTpre_Pattern_a_MT_constraint'
p6579
sbg2495
ssbsbsg83
g0
(g84
g2
Ntp6580
Rp6581
(dp6582
g20
Finf
sbsg88
g0
(g60
g2
Ntp6583
Rp6584
(dp6585
g20
I0
sbsg172
g1094
sg95
g0
(g96
g2
Ntp6586
Rp6587
(dp6588
g20
I00
sbsbsg66
g0
(g16
g2
Ntp6589
Rp6590
(dp6591
g20
(dp6592
sbsg184
g0
(g185
g2
Ntp6593
Rp6594
(dp6595
g189
g0
(g22
g2
Ntp6596
Rp6597
(dp6598
g20
g2142
sbsbsg194
g0
(g16
g2
Ntp6599
Rp6600
(dp6601
g20
(dp6602
sbsg500
g0
(g16
g2
Ntp6603
Rp6604
(dp6605
g20
(dp6606
sbsg224
g0
(g16
g2
Ntp6607
Rp6608
(dp6609
g20
(dp6610
g0
(g50
g2
Ntp6611
Rp6612
(dp6613
g20
S'Inheritance.name'
p6614
sbg0
(g233
g2
Ntp6615
Rp6616
(dp6617
g83
g0
(g60
g2
Ntp6618
Rp6619
(dp6620
g20
I1
sbsg88
g0
(g60
g2
Ntp6621
Rp6622
(dp6623
g20
I1
sbsg59
g0
(g60
g2
Ntp6624
Rp6625
(dp6626
g20
I0
sbsg95
g0
(g96
g2
Ntp6627
Rp6628
(dp6629
g20
I00
sbsg64
g6612
sg65
g1906
sg20
g1921
sg66
g0
(g16
g2
Ntp6630
Rp6631
(dp6632
g20
(dp6633
sbsg184
g1107
sg224
g0
(g16
g2
Ntp6634
Rp6635
(dp6636
g20
(dp6637
sbsg268
g1139
sg285
g0
(g16
g2
Ntp6638
Rp6639
(dp6640
g20
(dp6641
sbsbssbsg285
g0
(g16
g2
Ntp6642
Rp6643
(dp6644
g20
(dp6645
sbsbssbsbsg3306
g3291
sg4315
g4300
sg4771
g4756
sg1955
g1940
sg5513
g5498
sg2722
g2707
sg3642
g3627
sg2632
g2617
sg2688
g2673
sg3150
g3135
sg5113
g5098
sg2510
g2495
sg4073
g4058
sg3120
g3105
sg3061
g3046
sg1985
g1970
sg3254
g3239
sg2266
g2251
sg6431
g6416
sg2007
g1992
sg3746
g3731
sg3771
g3756
sg1921
g1906
sg5273
g5258
sg3095
g3080
sg3823
g3808
sg3276
g3261
sg3801
g3786
ssbsg224
g0
(g16
g2
Ntp6646
Rp6647
(dp6648
g20
(dp6649
g0
(g50
g2
Ntp6650
Rp6651
(dp6652
g20
S'SimpleClassDiagrams.name'
p6653
sbg0
(g233
g2
Ntp6654
Rp6655
(dp6656
g83
g0
(g60
g2
Ntp6657
Rp6658
(dp6659
g20
I1
sbsg88
g0
(g60
g2
Ntp6660
Rp6661
(dp6662
g20
I1
sbsg59
g0
(g60
g2
Ntp6663
Rp6664
(dp6665
g20
I0
sbsg95
g0
(g96
g2
Ntp6666
Rp6667
(dp6668
g20
I00
sbsg64
g6651
sg65
g1771
sg20
g1768
sg66
g0
(g16
g2
Ntp6669
Rp6670
(dp6671
g20
(dp6672
sbsg184
g1160
sg224
g0
(g16
g2
Ntp6673
Rp6674
(dp6675
g20
(dp6676
sbsg268
g1192
sg285
g0
(g16
g2
Ntp6677
Rp6678
(dp6679
g20
(dp6680
sbsbsg0
(g50
g2
Ntp6681
Rp6682
(dp6683
g20
g661
sbg0
(g233
g2
Ntp6684
Rp6685
(dp6686
g83
g0
(g60
g2
Ntp6687
Rp6688
(dp6689
g20
I1
sbsg88
g0
(g60
g2
Ntp6690
Rp6691
(dp6692
g20
I1
sbsg59
g0
(g60
g2
Ntp6693
Rp6694
(dp6695
g20
I1
sbsg95
g0
(g96
g2
Ntp6696
Rp6697
(dp6698
g20
I00
sbsg64
g6682
sg65
g1771
sg249
g0
(g50
g2
Ntp6699
Rp6700
(dp6701
g20
g312
sbsg66
g0
(g16
g2
Ntp6702
Rp6703
(dp6704
g20
(dp6705
sbsg184
g0
(g203
g2
Ntp6706
Rp6707
(dp6708
g189
g0
(g22
g2
Ntp6709
Rp6710
(dp6711
g20
g1743
sbsbsg224
g0
(g16
g2
Ntp6712
Rp6713
(dp6714
g20
(dp6715
sbsg268
g0
(g327
g2
Ntp6716
Rp6717
sg285
g0
(g16
g2
Ntp6718
Rp6719
(dp6720
g20
(dp6721
sbsbssbsg11
g0
(g12
g2
Ntp6722
Rp6723
sg285
g0
(g16
g2
Ntp6724
Rp6725
(dp6726
g20
(dp6727
sbsg184
g0
(g1203
g2
Ntp6728
Rp6729
(dp6730
g189
g0
(g22
g2
Ntp6731
Rp6732
(dp6733
g20
g1766
sbsbsbssbsg65
g29
sg64
g38
sbssbsg65
Nsg64
g24
sbsg0
(g22
g2
Ntp6734
Rp6735
(dp6736
g20
S't'
p6737
sbg0
(g27
g2
Ntp6738
Rp6739
(dp6740
g11
g0
(g12
g2
Ntp6741
Rp6742
sg15
g0
(g16
g2
Ntp6743
Rp6744
(dp6745
g20
(dp6746
g0
(g50
g2
Ntp6747
Rp6748
(dp6749
g20
g6737
sbg0
(g55
g2
Ntp6750
Rp6751
(dp6752
g59
g0
(g60
g2
Ntp6753
Rp6754
(dp6755
g20
I1
sbsg64
g6748
sg65
g6739
sg66
g0
(g16
g2
Ntp6756
Rp6757
(dp6758
g20
(dp6759
sbsg15
g0
(g16
g2
Ntp6760
Rp6761
(dp6762
g20
(dp6763
sbsg224
g0
(g16
g2
Ntp6764
Rp6765
(dp6766
g20
(dp6767
g0
(g50
g2
Ntp6768
Rp6769
(dp6770
g20
S'SimpleClassDiagrams.name'
p6771
sbg0
(g233
g2
Ntp6772
Rp6773
(dp6774
g83
g0
(g60
g2
Ntp6775
Rp6776
(dp6777
g20
I1
sbsg88
g0
(g60
g2
Ntp6778
Rp6779
(dp6780
g20
I1
sbsg59
g0
(g60
g2
Ntp6781
Rp6782
(dp6783
g20
I0
sbsg95
g0
(g96
g2
Ntp6784
Rp6785
(dp6786
g20
I00
sbsg64
g6769
sg65
g6751
sg20
g6748
sg66
g0
(g16
g2
Ntp6787
Rp6788
(dp6789
g20
(dp6790
sbsg184
g1160
sg224
g0
(g16
g2
Ntp6791
Rp6792
(dp6793
g20
(dp6794
sbsg268
g1192
sg285
g0
(g16
g2
Ntp6795
Rp6796
(dp6797
g20
(dp6798
sbsbsg0
(g50
g2
Ntp6799
Rp6800
(dp6801
g20
g64
sbg0
(g233
g2
Ntp6802
Rp6803
(dp6804
g83
g0
(g60
g2
Ntp6805
Rp6806
(dp6807
g20
I1
sbsg88
g0
(g60
g2
Ntp6808
Rp6809
(dp6810
g20
I1
sbsg59
g0
(g60
g2
Ntp6811
Rp6812
(dp6813
g20
I1
sbsg95
g0
(g96
g2
Ntp6814
Rp6815
(dp6816
g20
I00
sbsg64
g6800
sg65
g6751
sg249
g0
(g50
g2
Ntp6817
Rp6818
(dp6819
g20
g312
sbsg66
g0
(g16
g2
Ntp6820
Rp6821
(dp6822
g20
(dp6823
sbsg184
g0
(g203
g2
Ntp6824
Rp6825
(dp6826
g189
g0
(g22
g2
Ntp6827
Rp6828
(dp6829
g20
S'mvk.object.Attribute'
p6830
sbsbsg224
g0
(g16
g2
Ntp6831
Rp6832
(dp6833
g20
(dp6834
sbsg268
g0
(g327
g2
Ntp6835
Rp6836
sg285
g0
(g16
g2
Ntp6837
Rp6838
(dp6839
g20
(dp6840
sbsbssbsg11
g0
(g12
g2
Ntp6841
Rp6842
sg285
g0
(g16
g2
Ntp6843
Rp6844
(dp6845
g20
(dp6846
sbsg184
g0
(g1203
g2
Ntp6847
Rp6848
(dp6849
g189
g0
(g22
g2
Ntp6850
Rp6851
(dp6852
g20
S'protected.formalisms.SimpleClassDiagrams'
p6853
sbsbsbssbsg65
Nsg64
g6735
sbssbsg65
Nsg64
g0
(g50
g2
Ntp6854
Rp6855
(dp6856
g20
g312
sbsbsb(dp6857
g0
(g22
g2
Ntp6858
Rp6859
(dp6860
g20
S'protected.formalisms.Transformation'
p6861
sbg0
(cmvk.impl.formalisms.SCDMapper
SCDFormalismMapper
p6862
g2
Ntp6863
Rp6864
(dp6865
S'tm_loc'
p6866
g6859
sS'tm'
p6867
g1216
sbsg0
(g22
g2
Ntp6868
Rp6869
(dp6870
g20
S't.t'
p6871
sbg0
(g6862
g2
Ntp6872
Rp6873
(dp6874
g6866
g6869
sg6867
g6751
sbsg0
(g22
g2
Ntp6875
Rp6876
(dp6877
g20
S'protected.formalisms.SimpleClassDiagrams'
p6878
sbg0
(cmvk.impl.formalisms.SCDMapper
SCDMapper
p6879
g2
Ntp6880
Rp6881
(dp6882
S'phys_actions_update'
p6883
g0
(g16
g2
Ntp6884
Rp6885
(dp6886
g20
(dp6887
g0
(g22
g2
Ntp6888
Rp6889
(dp6890
g20
S'Attribute.type'
p6891
sbg0
(g50
g2
Ntp6892
Rp6893
(dp6894
g20
S'set_type'
p6895
sbsg0
(g22
g2
Ntp6896
Rp6897
(dp6898
g20
S'SimpleClassDiagrams.name'
p6899
sbg0
(g50
g2
Ntp6900
Rp6901
(dp6902
g20
S'set_name'
p6903
sbsg0
(g22
g2
Ntp6904
Rp6905
(dp6906
g20
S'Association.to_min'
p6907
sbg0
(g50
g2
Ntp6908
Rp6909
(dp6910
g20
S'get_to_multiplicity().set_lower'
p6911
sbsg0
(g22
g2
Ntp6912
Rp6913
(dp6914
g20
S'Association.to_port'
p6915
sbg0
(g50
g2
Ntp6916
Rp6917
(dp6918
g20
S'get_to_multiplicity().set_port_name'
p6919
sbsg0
(g22
g2
Ntp6920
Rp6921
(dp6922
g20
S'Association.from_port'
p6923
sbg0
(g50
g2
Ntp6924
Rp6925
(dp6926
g20
S'get_from_multiplicity().set_port_name'
p6927
sbsg0
(g22
g2
Ntp6928
Rp6929
(dp6930
g20
S'attributes.name'
p6931
sbg0
(g50
g2
Ntp6932
Rp6933
(dp6934
g20
g6903
sbsg0
(g22
g2
Ntp6935
Rp6936
(dp6937
g20
S'Inheritance.name'
p6938
sbg0
(g50
g2
Ntp6939
Rp6940
(dp6941
g20
g6903
sbsg0
(g22
g2
Ntp6942
Rp6943
(dp6944
g20
S'Association.from_min'
p6945
sbg0
(g50
g2
Ntp6946
Rp6947
(dp6948
g20
S'get_from_multiplicity().set_lower'
p6949
sbsg0
(g22
g2
Ntp6950
Rp6951
(dp6952
g20
S'Attribute.name'
p6953
sbg0
(g50
g2
Ntp6954
Rp6955
(dp6956
g20
g6903
sbsg0
(g22
g2
Ntp6957
Rp6958
(dp6959
g20
S'Association.name'
p6960
sbg0
(g50
g2
Ntp6961
Rp6962
(dp6963
g20
g6903
sbsg0
(g22
g2
Ntp6964
Rp6965
(dp6966
g20
S'Class.name'
p6967
sbg0
(g50
g2
Ntp6968
Rp6969
(dp6970
g20
g6903
sbsg0
(g22
g2
Ntp6971
Rp6972
(dp6973
g20
S'Class.is_abstract'
p6974
sbg0
(g50
g2
Ntp6975
Rp6976
(dp6977
g20
S'set_abstract'
p6978
sbsg0
(g22
g2
Ntp6979
Rp6980
(dp6981
g20
S'Association.to_max'
p6982
sbg0
(g50
g2
Ntp6983
Rp6984
(dp6985
g20
S'get_to_multiplicity().set_upper'
p6986
sbsg0
(g22
g2
Ntp6987
Rp6988
(dp6989
g20
S'Attribute.default'
p6990
sbg0
(g50
g2
Ntp6991
Rp6992
(dp6993
g20
S'set_default'
p6994
sbsg0
(g22
g2
Ntp6995
Rp6996
(dp6997
g20
S'Association.is_abstract'
p6998
sbg0
(g50
g2
Ntp6999
Rp7000
(dp7001
g20
g6978
sbsg0
(g22
g2
Ntp7002
Rp7003
(dp7004
g20
S'Association.from_max'
p7005
sbg0
(g50
g2
Ntp7006
Rp7007
(dp7008
g20
S'get_from_multiplicity().set_upper'
p7009
sbssbsS'phys_attribute_mapping'
p7010
g0
(g16
g2
Ntp7011
Rp7012
(dp7013
g20
(dp7014
g0
(g22
g2
Ntp7015
Rp7016
(dp7017
g20
g6891
sbg0
(cmvk.impl.python.datavalue
TupleValue
p7018
g2
Ntp7019
Rp7020
(dp7021
g20
(g0
(g50
g2
Ntp7022
Rp7023
(dp7024
g20
g908
sbtp7025
sbsg0
(g22
g2
Ntp7026
Rp7027
(dp7028
g20
g6899
sbg0
(g7018
g2
Ntp7029
Rp7030
(dp7031
g20
(g0
(g50
g2
Ntp7032
Rp7033
(dp7034
g20
g661
sbtp7035
sbsg0
(g22
g2
Ntp7036
Rp7037
(dp7038
g20
g6907
sbg0
(g7018
g2
Ntp7039
Rp7040
(dp7041
g20
(g0
(g50
g2
Ntp7042
Rp7043
(dp7044
g20
S'to_multiplicity'
p7045
sbg0
(g50
g2
Ntp7046
Rp7047
(dp7048
g20
S'lower'
p7049
sbtp7050
sbsg0
(g22
g2
Ntp7051
Rp7052
(dp7053
g20
g6915
sbg0
(g7018
g2
Ntp7054
Rp7055
(dp7056
g20
(g0
(g50
g2
Ntp7057
Rp7058
(dp7059
g20
g7045
sbg0
(g50
g2
Ntp7060
Rp7061
(dp7062
g20
S'port_name'
p7063
sbtp7064
sbsg0
(g22
g2
Ntp7065
Rp7066
(dp7067
g20
g6923
sbg0
(g7018
g2
Ntp7068
Rp7069
(dp7070
g20
(g0
(g50
g2
Ntp7071
Rp7072
(dp7073
g20
S'from_multiplicity'
p7074
sbg0
(g50
g2
Ntp7075
Rp7076
(dp7077
g20
g7063
sbtp7078
sbsg0
(g22
g2
Ntp7079
Rp7080
(dp7081
g20
g6931
sbg0
(g7018
g2
Ntp7082
Rp7083
(dp7084
g20
(g0
(g50
g2
Ntp7085
Rp7086
(dp7087
g20
g661
sbtp7088
sbsg0
(g22
g2
Ntp7089
Rp7090
(dp7091
g20
g6938
sbg0
(g7018
g2
Ntp7092
Rp7093
(dp7094
g20
(g0
(g50
g2
Ntp7095
Rp7096
(dp7097
g20
g661
sbtp7098
sbsg0
(g22
g2
Ntp7099
Rp7100
(dp7101
g20
g6945
sbg0
(g7018
g2
Ntp7102
Rp7103
(dp7104
g20
(g0
(g50
g2
Ntp7105
Rp7106
(dp7107
g20
g7074
sbg0
(g50
g2
Ntp7108
Rp7109
(dp7110
g20
g7049
sbtp7111
sbsg0
(g22
g2
Ntp7112
Rp7113
(dp7114
g20
g6953
sbg0
(g7018
g2
Ntp7115
Rp7116
(dp7117
g20
(g0
(g50
g2
Ntp7118
Rp7119
(dp7120
g20
g661
sbtp7121
sbsg0
(g22
g2
Ntp7122
Rp7123
(dp7124
g20
g6960
sbg0
(g7018
g2
Ntp7125
Rp7126
(dp7127
g20
(g0
(g50
g2
Ntp7128
Rp7129
(dp7130
g20
g661
sbtp7131
sbsg0
(g22
g2
Ntp7132
Rp7133
(dp7134
g20
g6967
sbg0
(g7018
g2
Ntp7135
Rp7136
(dp7137
g20
(g0
(g50
g2
Ntp7138
Rp7139
(dp7140
g20
g661
sbtp7141
sbsg0
(g22
g2
Ntp7142
Rp7143
(dp7144
g20
g6974
sbg0
(g7018
g2
Ntp7145
Rp7146
(dp7147
g20
(g0
(g50
g2
Ntp7148
Rp7149
(dp7150
g20
S'abstract'
p7151
sbtp7152
sbsg0
(g22
g2
Ntp7153
Rp7154
(dp7155
g20
g6982
sbg0
(g7018
g2
Ntp7156
Rp7157
(dp7158
g20
(g0
(g50
g2
Ntp7159
Rp7160
(dp7161
g20
g7045
sbg0
(g50
g2
Ntp7162
Rp7163
(dp7164
g20
S'upper'
p7165
sbtp7166
sbsg0
(g22
g2
Ntp7167
Rp7168
(dp7169
g20
g6990
sbg0
(g7018
g2
Ntp7170
Rp7171
(dp7172
g20
(g0
(g50
g2
Ntp7173
Rp7174
(dp7175
g20
g864
sbtp7176
sbsg0
(g22
g2
Ntp7177
Rp7178
(dp7179
g20
g6998
sbg0
(g7018
g2
Ntp7180
Rp7181
(dp7182
g20
(g0
(g50
g2
Ntp7183
Rp7184
(dp7185
g20
g7151
sbtp7186
sbsg0
(g22
g2
Ntp7187
Rp7188
(dp7189
g20
g7005
sbg0
(g7018
g2
Ntp7190
Rp7191
(dp7192
g20
(g0
(g50
g2
Ntp7193
Rp7194
(dp7195
g20
g7074
sbg0
(g50
g2
Ntp7196
Rp7197
(dp7198
g20
g7165
sbtp7199
sbssbsbsg0
(g22
g2
Ntp7200
Rp7201
(dp7202
g20
S'protected.formalisms.Rule'
p7203
sbg0
(g6862
g2
Ntp7204
Rp7205
(dp7206
g6866
g7201
sg6867
g1771
sbsg0
(g22
g2
Ntp7207
Rp7208
(dp7209
g20
S'mvk'
p7210
sbg4
stp7211
.